Archive member included to satisfy reference by file (symbol)

/home/juan/Documents/VIII_Semestre/Labo_Micros/Labos_con_Luisja/Laboratorio_Microcontroladores/Laboratorio_4/src/libopencm3-examples/libopencm3/lib/libopencm3_stm32f4.a(fmc_common_f47.o)
                              sdram.o (sdram_timing)
/home/juan/Documents/VIII_Semestre/Labo_Micros/Labos_con_Luisja/Laboratorio_Microcontroladores/Laboratorio_4/src/libopencm3-examples/libopencm3/lib/libopencm3_stm32f4.a(gpio_common_all.o)
                              lcd.o (gpio_set)
/home/juan/Documents/VIII_Semestre/Labo_Micros/Labos_con_Luisja/Laboratorio_Microcontroladores/Laboratorio_4/src/libopencm3-examples/libopencm3/lib/libopencm3_stm32f4.a(gpio_common_f0234.o)
                              sdram.o (gpio_mode_setup)
/home/juan/Documents/VIII_Semestre/Labo_Micros/Labos_con_Luisja/Laboratorio_Microcontroladores/Laboratorio_4/src/libopencm3-examples/libopencm3/lib/libopencm3_stm32f4.a(rcc_common_all.o)
                              sdram.o (rcc_periph_clock_enable)
/home/juan/Documents/VIII_Semestre/Labo_Micros/Labos_con_Luisja/Laboratorio_Microcontroladores/Laboratorio_4/src/libopencm3-examples/libopencm3/lib/libopencm3_stm32f4.a(rcc.o)
                              clock.o (rcc_clock_setup_pll)
/home/juan/Documents/VIII_Semestre/Labo_Micros/Labos_con_Luisja/Laboratorio_Microcontroladores/Laboratorio_4/src/libopencm3-examples/libopencm3/lib/libopencm3_stm32f4.a(spi_common_all.o)
                              lcd.o (spi_enable)
/home/juan/Documents/VIII_Semestre/Labo_Micros/Labos_con_Luisja/Laboratorio_Microcontroladores/Laboratorio_4/src/libopencm3-examples/libopencm3/lib/libopencm3_stm32f4.a(spi_common_v1.o)
                              lcd.o (spi_init_master)
/home/juan/Documents/VIII_Semestre/Labo_Micros/Labos_con_Luisja/Laboratorio_Microcontroladores/Laboratorio_4/src/libopencm3-examples/libopencm3/lib/libopencm3_stm32f4.a(usart_common_all.o)
                              labo4.o (usart_set_baudrate)
/home/juan/Documents/VIII_Semestre/Labo_Micros/Labos_con_Luisja/Laboratorio_Microcontroladores/Laboratorio_4/src/libopencm3-examples/libopencm3/lib/libopencm3_stm32f4.a(usart_common_f124.o)
                              /home/juan/Documents/VIII_Semestre/Labo_Micros/Labos_con_Luisja/Laboratorio_Microcontroladores/Laboratorio_4/src/libopencm3-examples/libopencm3/lib/libopencm3_stm32f4.a(usart_common_all.o) (usart_send)
/home/juan/Documents/VIII_Semestre/Labo_Micros/Labos_con_Luisja/Laboratorio_Microcontroladores/Laboratorio_4/src/libopencm3-examples/libopencm3/lib/libopencm3_stm32f4.a(vector.o)
                              (reset_handler)
/home/juan/Documents/VIII_Semestre/Labo_Micros/Labos_con_Luisja/Laboratorio_Microcontroladores/Laboratorio_4/src/libopencm3-examples/libopencm3/lib/libopencm3_stm32f4.a(systick.o)
                              clock.o (systick_set_reload)
/home/juan/Documents/VIII_Semestre/Labo_Micros/Labos_con_Luisja/Laboratorio_Microcontroladores/Laboratorio_4/src/libopencm3-examples/libopencm3/lib/libopencm3_stm32f4.a(flash_common_all.o)
                              /home/juan/Documents/VIII_Semestre/Labo_Micros/Labos_con_Luisja/Laboratorio_Microcontroladores/Laboratorio_4/src/libopencm3-examples/libopencm3/lib/libopencm3_stm32f4.a(rcc.o) (flash_set_ws)
/home/juan/Documents/VIII_Semestre/Labo_Micros/Labos_con_Luisja/Laboratorio_Microcontroladores/Laboratorio_4/src/libopencm3-examples/libopencm3/lib/libopencm3_stm32f4.a(flash_common_idcache.o)
                              /home/juan/Documents/VIII_Semestre/Labo_Micros/Labos_con_Luisja/Laboratorio_Microcontroladores/Laboratorio_4/src/libopencm3-examples/libopencm3/lib/libopencm3_stm32f4.a(rcc.o) (flash_dcache_enable)
/home/juan/Documents/VIII_Semestre/Labo_Micros/Labos_con_Luisja/Laboratorio_Microcontroladores/Laboratorio_4/src/libopencm3-examples/libopencm3/lib/libopencm3_stm32f4.a(pwr.o)
                              /home/juan/Documents/VIII_Semestre/Labo_Micros/Labos_con_Luisja/Laboratorio_Microcontroladores/Laboratorio_4/src/libopencm3-examples/libopencm3/lib/libopencm3_stm32f4.a(rcc.o) (pwr_set_vos_scale)
/usr/lib/gcc/arm-none-eabi/9.2.1/../../../arm-none-eabi/lib/thumb/v7e-m+fp/hard/libc.a(lib_a-printf.o)
                              lcd.o (printf)
/usr/lib/gcc/arm-none-eabi/9.2.1/../../../arm-none-eabi/lib/thumb/v7e-m+fp/hard/libc.a(lib_a-puts.o)
                              labo4.o (puts)
/usr/lib/gcc/arm-none-eabi/9.2.1/../../../arm-none-eabi/lib/thumb/v7e-m+fp/hard/libc.a(lib_a-strlen.o)
                              /usr/lib/gcc/arm-none-eabi/9.2.1/../../../arm-none-eabi/lib/thumb/v7e-m+fp/hard/libc.a(lib_a-puts.o) (strlen)
/usr/lib/gcc/arm-none-eabi/9.2.1/../../../arm-none-eabi/lib/thumb/v7e-m+fp/hard/libc.a(lib_a-vfprintf.o)
                              /usr/lib/gcc/arm-none-eabi/9.2.1/../../../arm-none-eabi/lib/thumb/v7e-m+fp/hard/libc.a(lib_a-printf.o) (_vfprintf_r)
/usr/lib/gcc/arm-none-eabi/9.2.1/../../../arm-none-eabi/lib/thumb/v7e-m+fp/hard/libc.a(lib_a-wsetup.o)
                              /usr/lib/gcc/arm-none-eabi/9.2.1/../../../arm-none-eabi/lib/thumb/v7e-m+fp/hard/libc.a(lib_a-vfprintf.o) (__swsetup_r)
/usr/lib/gcc/arm-none-eabi/9.2.1/../../../arm-none-eabi/lib/thumb/v7e-m+fp/hard/libc.a(lib_a-dtoa.o)
                              /usr/lib/gcc/arm-none-eabi/9.2.1/../../../arm-none-eabi/lib/thumb/v7e-m+fp/hard/libc.a(lib_a-vfprintf.o) (_dtoa_r)
/usr/lib/gcc/arm-none-eabi/9.2.1/../../../arm-none-eabi/lib/thumb/v7e-m+fp/hard/libc.a(lib_a-fflush.o)
                              /usr/lib/gcc/arm-none-eabi/9.2.1/../../../arm-none-eabi/lib/thumb/v7e-m+fp/hard/libc.a(lib_a-vfprintf.o) (_fflush_r)
/usr/lib/gcc/arm-none-eabi/9.2.1/../../../arm-none-eabi/lib/thumb/v7e-m+fp/hard/libc.a(lib_a-findfp.o)
                              /usr/lib/gcc/arm-none-eabi/9.2.1/../../../arm-none-eabi/lib/thumb/v7e-m+fp/hard/libc.a(lib_a-puts.o) (__sinit)
/usr/lib/gcc/arm-none-eabi/9.2.1/../../../arm-none-eabi/lib/thumb/v7e-m+fp/hard/libc.a(lib_a-freer.o)
                              /usr/lib/gcc/arm-none-eabi/9.2.1/../../../arm-none-eabi/lib/thumb/v7e-m+fp/hard/libc.a(lib_a-wsetup.o) (_free_r)
/usr/lib/gcc/arm-none-eabi/9.2.1/../../../arm-none-eabi/lib/thumb/v7e-m+fp/hard/libc.a(lib_a-fvwrite.o)
                              /usr/lib/gcc/arm-none-eabi/9.2.1/../../../arm-none-eabi/lib/thumb/v7e-m+fp/hard/libc.a(lib_a-puts.o) (__sfvwrite_r)
/usr/lib/gcc/arm-none-eabi/9.2.1/../../../arm-none-eabi/lib/thumb/v7e-m+fp/hard/libc.a(lib_a-fwalk.o)
                              /usr/lib/gcc/arm-none-eabi/9.2.1/../../../arm-none-eabi/lib/thumb/v7e-m+fp/hard/libc.a(lib_a-findfp.o) (_fwalk)
/usr/lib/gcc/arm-none-eabi/9.2.1/../../../arm-none-eabi/lib/thumb/v7e-m+fp/hard/libc.a(lib_a-impure.o)
                              /usr/lib/gcc/arm-none-eabi/9.2.1/../../../arm-none-eabi/lib/thumb/v7e-m+fp/hard/libc.a(lib_a-fflush.o) (_global_impure_ptr)
/usr/lib/gcc/arm-none-eabi/9.2.1/../../../arm-none-eabi/lib/thumb/v7e-m+fp/hard/libc.a(lib_a-localeconv.o)
                              /usr/lib/gcc/arm-none-eabi/9.2.1/../../../arm-none-eabi/lib/thumb/v7e-m+fp/hard/libc.a(lib_a-vfprintf.o) (_localeconv_r)
/usr/lib/gcc/arm-none-eabi/9.2.1/../../../arm-none-eabi/lib/thumb/v7e-m+fp/hard/libc.a(lib_a-makebuf.o)
                              /usr/lib/gcc/arm-none-eabi/9.2.1/../../../arm-none-eabi/lib/thumb/v7e-m+fp/hard/libc.a(lib_a-wsetup.o) (__smakebuf_r)
/usr/lib/gcc/arm-none-eabi/9.2.1/../../../arm-none-eabi/lib/thumb/v7e-m+fp/hard/libc.a(lib_a-mallocr.o)
                              /usr/lib/gcc/arm-none-eabi/9.2.1/../../../arm-none-eabi/lib/thumb/v7e-m+fp/hard/libc.a(lib_a-findfp.o) (_malloc_r)
/usr/lib/gcc/arm-none-eabi/9.2.1/../../../arm-none-eabi/lib/thumb/v7e-m+fp/hard/libc.a(lib_a-memchr.o)
                              /usr/lib/gcc/arm-none-eabi/9.2.1/../../../arm-none-eabi/lib/thumb/v7e-m+fp/hard/libc.a(lib_a-vfprintf.o) (memchr)
/usr/lib/gcc/arm-none-eabi/9.2.1/../../../arm-none-eabi/lib/thumb/v7e-m+fp/hard/libc.a(lib_a-memcpy.o)
                              /usr/lib/gcc/arm-none-eabi/9.2.1/../../../arm-none-eabi/lib/thumb/v7e-m+fp/hard/libc.a(lib_a-dtoa.o) (memcpy)
/usr/lib/gcc/arm-none-eabi/9.2.1/../../../arm-none-eabi/lib/thumb/v7e-m+fp/hard/libc.a(lib_a-memmove.o)
                              /usr/lib/gcc/arm-none-eabi/9.2.1/../../../arm-none-eabi/lib/thumb/v7e-m+fp/hard/libc.a(lib_a-fvwrite.o) (memmove)
/usr/lib/gcc/arm-none-eabi/9.2.1/../../../arm-none-eabi/lib/thumb/v7e-m+fp/hard/libc.a(lib_a-memset.o)
                              /usr/lib/gcc/arm-none-eabi/9.2.1/../../../arm-none-eabi/lib/thumb/v7e-m+fp/hard/libc.a(lib_a-findfp.o) (memset)
/usr/lib/gcc/arm-none-eabi/9.2.1/../../../arm-none-eabi/lib/thumb/v7e-m+fp/hard/libc.a(lib_a-mlock.o)
                              /usr/lib/gcc/arm-none-eabi/9.2.1/../../../arm-none-eabi/lib/thumb/v7e-m+fp/hard/libc.a(lib_a-freer.o) (__malloc_lock)
/usr/lib/gcc/arm-none-eabi/9.2.1/../../../arm-none-eabi/lib/thumb/v7e-m+fp/hard/libc.a(lib_a-mprec.o)
                              /usr/lib/gcc/arm-none-eabi/9.2.1/../../../arm-none-eabi/lib/thumb/v7e-m+fp/hard/libc.a(lib_a-dtoa.o) (_Balloc)
/usr/lib/gcc/arm-none-eabi/9.2.1/../../../arm-none-eabi/lib/thumb/v7e-m+fp/hard/libc.a(lib_a-reallocr.o)
                              /usr/lib/gcc/arm-none-eabi/9.2.1/../../../arm-none-eabi/lib/thumb/v7e-m+fp/hard/libc.a(lib_a-fvwrite.o) (_realloc_r)
/usr/lib/gcc/arm-none-eabi/9.2.1/../../../arm-none-eabi/lib/thumb/v7e-m+fp/hard/libc.a(lib_a-sbrkr.o)
                              /usr/lib/gcc/arm-none-eabi/9.2.1/../../../arm-none-eabi/lib/thumb/v7e-m+fp/hard/libc.a(lib_a-freer.o) (_sbrk_r)
/usr/lib/gcc/arm-none-eabi/9.2.1/../../../arm-none-eabi/lib/thumb/v7e-m+fp/hard/libc.a(lib_a-stdio.o)
                              /usr/lib/gcc/arm-none-eabi/9.2.1/../../../arm-none-eabi/lib/thumb/v7e-m+fp/hard/libc.a(lib_a-findfp.o) (__sread)
/usr/lib/gcc/arm-none-eabi/9.2.1/../../../arm-none-eabi/lib/thumb/v7e-m+fp/hard/libc.a(lib_a-vfiprintf.o)
                              /usr/lib/gcc/arm-none-eabi/9.2.1/../../../arm-none-eabi/lib/thumb/v7e-m+fp/hard/libc.a(lib_a-vfprintf.o) (__sprint_r)
/usr/lib/gcc/arm-none-eabi/9.2.1/../../../arm-none-eabi/lib/thumb/v7e-m+fp/hard/libc.a(lib_a-writer.o)
                              /usr/lib/gcc/arm-none-eabi/9.2.1/../../../arm-none-eabi/lib/thumb/v7e-m+fp/hard/libc.a(lib_a-stdio.o) (_write_r)
/usr/lib/gcc/arm-none-eabi/9.2.1/../../../arm-none-eabi/lib/thumb/v7e-m+fp/hard/libc.a(lib_a-assert.o)
                              /usr/lib/gcc/arm-none-eabi/9.2.1/../../../arm-none-eabi/lib/thumb/v7e-m+fp/hard/libc.a(lib_a-dtoa.o) (__assert_func)
/usr/lib/gcc/arm-none-eabi/9.2.1/../../../arm-none-eabi/lib/thumb/v7e-m+fp/hard/libc.a(lib_a-callocr.o)
                              /usr/lib/gcc/arm-none-eabi/9.2.1/../../../arm-none-eabi/lib/thumb/v7e-m+fp/hard/libc.a(lib_a-mprec.o) (_calloc_r)
/usr/lib/gcc/arm-none-eabi/9.2.1/../../../arm-none-eabi/lib/thumb/v7e-m+fp/hard/libc.a(lib_a-closer.o)
                              /usr/lib/gcc/arm-none-eabi/9.2.1/../../../arm-none-eabi/lib/thumb/v7e-m+fp/hard/libc.a(lib_a-stdio.o) (_close_r)
/usr/lib/gcc/arm-none-eabi/9.2.1/../../../arm-none-eabi/lib/thumb/v7e-m+fp/hard/libc.a(lib_a-fclose.o)
                              /usr/lib/gcc/arm-none-eabi/9.2.1/../../../arm-none-eabi/lib/thumb/v7e-m+fp/hard/libc.a(lib_a-findfp.o) (_fclose_r)
/usr/lib/gcc/arm-none-eabi/9.2.1/../../../arm-none-eabi/lib/thumb/v7e-m+fp/hard/libc.a(lib_a-fiprintf.o)
                              /usr/lib/gcc/arm-none-eabi/9.2.1/../../../arm-none-eabi/lib/thumb/v7e-m+fp/hard/libc.a(lib_a-assert.o) (fiprintf)
/usr/lib/gcc/arm-none-eabi/9.2.1/../../../arm-none-eabi/lib/thumb/v7e-m+fp/hard/libc.a(lib_a-fputwc.o)
                              /usr/lib/gcc/arm-none-eabi/9.2.1/../../../arm-none-eabi/lib/thumb/v7e-m+fp/hard/libc.a(lib_a-vfiprintf.o) (_fputwc_r)
/usr/lib/gcc/arm-none-eabi/9.2.1/../../../arm-none-eabi/lib/thumb/v7e-m+fp/hard/libc.a(lib_a-fstatr.o)
                              /usr/lib/gcc/arm-none-eabi/9.2.1/../../../arm-none-eabi/lib/thumb/v7e-m+fp/hard/libc.a(lib_a-makebuf.o) (_fstat_r)
/usr/lib/gcc/arm-none-eabi/9.2.1/../../../arm-none-eabi/lib/thumb/v7e-m+fp/hard/libc.a(lib_a-isattyr.o)
                              /usr/lib/gcc/arm-none-eabi/9.2.1/../../../arm-none-eabi/lib/thumb/v7e-m+fp/hard/libc.a(lib_a-makebuf.o) (_isatty_r)
/usr/lib/gcc/arm-none-eabi/9.2.1/../../../arm-none-eabi/lib/thumb/v7e-m+fp/hard/libc.a(lib_a-locale.o)
                              /usr/lib/gcc/arm-none-eabi/9.2.1/../../../arm-none-eabi/lib/thumb/v7e-m+fp/hard/libc.a(lib_a-fputwc.o) (__locale_mb_cur_max)
/usr/lib/gcc/arm-none-eabi/9.2.1/../../../arm-none-eabi/lib/thumb/v7e-m+fp/hard/libc.a(lib_a-lseekr.o)
                              /usr/lib/gcc/arm-none-eabi/9.2.1/../../../arm-none-eabi/lib/thumb/v7e-m+fp/hard/libc.a(lib_a-stdio.o) (_lseek_r)
/usr/lib/gcc/arm-none-eabi/9.2.1/../../../arm-none-eabi/lib/thumb/v7e-m+fp/hard/libc.a(lib_a-mbtowc_r.o)
                              /usr/lib/gcc/arm-none-eabi/9.2.1/../../../arm-none-eabi/lib/thumb/v7e-m+fp/hard/libc.a(lib_a-locale.o) (__ascii_mbtowc)
/usr/lib/gcc/arm-none-eabi/9.2.1/../../../arm-none-eabi/lib/thumb/v7e-m+fp/hard/libc.a(lib_a-readr.o)
                              /usr/lib/gcc/arm-none-eabi/9.2.1/../../../arm-none-eabi/lib/thumb/v7e-m+fp/hard/libc.a(lib_a-stdio.o) (_read_r)
/usr/lib/gcc/arm-none-eabi/9.2.1/../../../arm-none-eabi/lib/thumb/v7e-m+fp/hard/libc.a(lib_a-reent.o)
                              /usr/lib/gcc/arm-none-eabi/9.2.1/../../../arm-none-eabi/lib/thumb/v7e-m+fp/hard/libc.a(lib_a-sbrkr.o) (errno)
/usr/lib/gcc/arm-none-eabi/9.2.1/../../../arm-none-eabi/lib/thumb/v7e-m+fp/hard/libc.a(lib_a-strcmp.o)
                              /usr/lib/gcc/arm-none-eabi/9.2.1/../../../arm-none-eabi/lib/thumb/v7e-m+fp/hard/libc.a(lib_a-locale.o) (strcmp)
/usr/lib/gcc/arm-none-eabi/9.2.1/../../../arm-none-eabi/lib/thumb/v7e-m+fp/hard/libc.a(lib_a-wbuf.o)
                              /usr/lib/gcc/arm-none-eabi/9.2.1/../../../arm-none-eabi/lib/thumb/v7e-m+fp/hard/libc.a(lib_a-fputwc.o) (__swbuf_r)
/usr/lib/gcc/arm-none-eabi/9.2.1/../../../arm-none-eabi/lib/thumb/v7e-m+fp/hard/libc.a(lib_a-wcrtomb.o)
                              /usr/lib/gcc/arm-none-eabi/9.2.1/../../../arm-none-eabi/lib/thumb/v7e-m+fp/hard/libc.a(lib_a-fputwc.o) (_wcrtomb_r)
/usr/lib/gcc/arm-none-eabi/9.2.1/../../../arm-none-eabi/lib/thumb/v7e-m+fp/hard/libc.a(lib_a-wctomb_r.o)
                              /usr/lib/gcc/arm-none-eabi/9.2.1/../../../arm-none-eabi/lib/thumb/v7e-m+fp/hard/libc.a(lib_a-locale.o) (__ascii_wctomb)
/usr/lib/gcc/arm-none-eabi/9.2.1/../../../arm-none-eabi/lib/thumb/v7e-m+fp/hard/libc.a(lib_a-abort.o)
                              /usr/lib/gcc/arm-none-eabi/9.2.1/../../../arm-none-eabi/lib/thumb/v7e-m+fp/hard/libc.a(lib_a-assert.o) (abort)
/usr/lib/gcc/arm-none-eabi/9.2.1/../../../arm-none-eabi/lib/thumb/v7e-m+fp/hard/libc.a(lib_a-ctype_.o)
                              /usr/lib/gcc/arm-none-eabi/9.2.1/../../../arm-none-eabi/lib/thumb/v7e-m+fp/hard/libc.a(lib_a-locale.o) (_ctype_)
/usr/lib/gcc/arm-none-eabi/9.2.1/../../../arm-none-eabi/lib/thumb/v7e-m+fp/hard/libc.a(lib_a-signal.o)
                              /usr/lib/gcc/arm-none-eabi/9.2.1/../../../arm-none-eabi/lib/thumb/v7e-m+fp/hard/libc.a(lib_a-abort.o) (raise)
/usr/lib/gcc/arm-none-eabi/9.2.1/../../../arm-none-eabi/lib/thumb/v7e-m+fp/hard/libc.a(lib_a-signalr.o)
                              /usr/lib/gcc/arm-none-eabi/9.2.1/../../../arm-none-eabi/lib/thumb/v7e-m+fp/hard/libc.a(lib_a-signal.o) (_kill_r)
/usr/lib/gcc/arm-none-eabi/9.2.1/thumb/v7e-m+fp/hard/libgcc.a(_arm_muldf3.o)
                              /usr/lib/gcc/arm-none-eabi/9.2.1/../../../arm-none-eabi/lib/thumb/v7e-m+fp/hard/libc.a(lib_a-dtoa.o) (__aeabi_dmul)
/usr/lib/gcc/arm-none-eabi/9.2.1/thumb/v7e-m+fp/hard/libgcc.a(_arm_addsubdf3.o)
                              /usr/lib/gcc/arm-none-eabi/9.2.1/../../../arm-none-eabi/lib/thumb/v7e-m+fp/hard/libc.a(lib_a-dtoa.o) (__aeabi_dsub)
/usr/lib/gcc/arm-none-eabi/9.2.1/thumb/v7e-m+fp/hard/libgcc.a(_arm_muldivdf3.o)
                              /usr/lib/gcc/arm-none-eabi/9.2.1/../../../arm-none-eabi/lib/thumb/v7e-m+fp/hard/libc.a(lib_a-dtoa.o) (__aeabi_ddiv)
/usr/lib/gcc/arm-none-eabi/9.2.1/thumb/v7e-m+fp/hard/libgcc.a(_arm_cmpdf2.o)
                              /usr/lib/gcc/arm-none-eabi/9.2.1/../../../arm-none-eabi/lib/thumb/v7e-m+fp/hard/libc.a(lib_a-vfprintf.o) (__aeabi_dcmpeq)
/usr/lib/gcc/arm-none-eabi/9.2.1/thumb/v7e-m+fp/hard/libgcc.a(_arm_unorddf2.o)
                              /usr/lib/gcc/arm-none-eabi/9.2.1/../../../arm-none-eabi/lib/thumb/v7e-m+fp/hard/libc.a(lib_a-vfprintf.o) (__aeabi_dcmpun)
/usr/lib/gcc/arm-none-eabi/9.2.1/thumb/v7e-m+fp/hard/libgcc.a(_arm_fixdfsi.o)
                              /usr/lib/gcc/arm-none-eabi/9.2.1/../../../arm-none-eabi/lib/thumb/v7e-m+fp/hard/libc.a(lib_a-dtoa.o) (__aeabi_d2iz)
/usr/lib/gcc/arm-none-eabi/9.2.1/thumb/v7e-m+fp/hard/libgcc.a(_aeabi_uldivmod.o)
                              /usr/lib/gcc/arm-none-eabi/9.2.1/../../../arm-none-eabi/lib/thumb/v7e-m+fp/hard/libc.a(lib_a-vfprintf.o) (__aeabi_uldivmod)
/usr/lib/gcc/arm-none-eabi/9.2.1/thumb/v7e-m+fp/hard/libgcc.a(_udivmoddi4.o)
                              /usr/lib/gcc/arm-none-eabi/9.2.1/thumb/v7e-m+fp/hard/libgcc.a(_aeabi_uldivmod.o) (__udivmoddi4)
/usr/lib/gcc/arm-none-eabi/9.2.1/thumb/v7e-m+fp/hard/libgcc.a(_dvmd_tls.o)
                              /usr/lib/gcc/arm-none-eabi/9.2.1/thumb/v7e-m+fp/hard/libgcc.a(_aeabi_uldivmod.o) (__aeabi_ldiv0)
/usr/lib/gcc/arm-none-eabi/9.2.1/../../../arm-none-eabi/lib/thumb/v7e-m+fp/hard/libnosys.a(close.o)
                              /usr/lib/gcc/arm-none-eabi/9.2.1/../../../arm-none-eabi/lib/thumb/v7e-m+fp/hard/libc.a(lib_a-closer.o) (_close)
/usr/lib/gcc/arm-none-eabi/9.2.1/../../../arm-none-eabi/lib/thumb/v7e-m+fp/hard/libnosys.a(fstat.o)
                              /usr/lib/gcc/arm-none-eabi/9.2.1/../../../arm-none-eabi/lib/thumb/v7e-m+fp/hard/libc.a(lib_a-fstatr.o) (_fstat)
/usr/lib/gcc/arm-none-eabi/9.2.1/../../../arm-none-eabi/lib/thumb/v7e-m+fp/hard/libnosys.a(getpid.o)
                              /usr/lib/gcc/arm-none-eabi/9.2.1/../../../arm-none-eabi/lib/thumb/v7e-m+fp/hard/libc.a(lib_a-signalr.o) (_getpid)
/usr/lib/gcc/arm-none-eabi/9.2.1/../../../arm-none-eabi/lib/thumb/v7e-m+fp/hard/libnosys.a(isatty.o)
                              /usr/lib/gcc/arm-none-eabi/9.2.1/../../../arm-none-eabi/lib/thumb/v7e-m+fp/hard/libc.a(lib_a-isattyr.o) (_isatty)
/usr/lib/gcc/arm-none-eabi/9.2.1/../../../arm-none-eabi/lib/thumb/v7e-m+fp/hard/libnosys.a(kill.o)
                              /usr/lib/gcc/arm-none-eabi/9.2.1/../../../arm-none-eabi/lib/thumb/v7e-m+fp/hard/libc.a(lib_a-signalr.o) (_kill)
/usr/lib/gcc/arm-none-eabi/9.2.1/../../../arm-none-eabi/lib/thumb/v7e-m+fp/hard/libnosys.a(lseek.o)
                              /usr/lib/gcc/arm-none-eabi/9.2.1/../../../arm-none-eabi/lib/thumb/v7e-m+fp/hard/libc.a(lib_a-lseekr.o) (_lseek)
/usr/lib/gcc/arm-none-eabi/9.2.1/../../../arm-none-eabi/lib/thumb/v7e-m+fp/hard/libnosys.a(read.o)
                              /usr/lib/gcc/arm-none-eabi/9.2.1/../../../arm-none-eabi/lib/thumb/v7e-m+fp/hard/libc.a(lib_a-readr.o) (_read)
/usr/lib/gcc/arm-none-eabi/9.2.1/../../../arm-none-eabi/lib/thumb/v7e-m+fp/hard/libnosys.a(sbrk.o)
                              /usr/lib/gcc/arm-none-eabi/9.2.1/../../../arm-none-eabi/lib/thumb/v7e-m+fp/hard/libc.a(lib_a-sbrkr.o) (_sbrk)
/usr/lib/gcc/arm-none-eabi/9.2.1/../../../arm-none-eabi/lib/thumb/v7e-m+fp/hard/libnosys.a(_exit.o)
                              /usr/lib/gcc/arm-none-eabi/9.2.1/../../../arm-none-eabi/lib/thumb/v7e-m+fp/hard/libc.a(lib_a-abort.o) (_exit)

Allocating common symbols
Common symbol       size              file

errno               0x4               /usr/lib/gcc/arm-none-eabi/9.2.1/../../../arm-none-eabi/lib/thumb/v7e-m+fp/hard/libc.a(lib_a-reent.o)

Discarded input sections

 .group         0x0000000000000000        0xc sdram.o
 .group         0x0000000000000000        0xc sdram.o
 .group         0x0000000000000000        0xc sdram.o
 .group         0x0000000000000000        0xc sdram.o
 .group         0x0000000000000000        0xc sdram.o
 .group         0x0000000000000000        0xc sdram.o
 .group         0x0000000000000000        0xc sdram.o
 .group         0x0000000000000000        0xc sdram.o
 .group         0x0000000000000000        0xc sdram.o
 .group         0x0000000000000000        0xc sdram.o
 .group         0x0000000000000000        0xc sdram.o
 .group         0x0000000000000000        0xc sdram.o
 .group         0x0000000000000000        0xc sdram.o
 .group         0x0000000000000000        0xc sdram.o
 .group         0x0000000000000000        0xc sdram.o
 .group         0x0000000000000000        0xc sdram.o
 .text          0x0000000000000000        0x0 sdram.o
 .data          0x0000000000000000        0x0 sdram.o
 .bss           0x0000000000000000        0x0 sdram.o
 .group         0x0000000000000000        0xc lcd.o
 .group         0x0000000000000000        0xc lcd.o
 .group         0x0000000000000000        0xc lcd.o
 .group         0x0000000000000000        0xc lcd.o
 .group         0x0000000000000000        0xc lcd.o
 .group         0x0000000000000000        0xc lcd.o
 .group         0x0000000000000000        0xc lcd.o
 .group         0x0000000000000000        0xc lcd.o
 .group         0x0000000000000000        0xc lcd.o
 .group         0x0000000000000000        0xc lcd.o
 .group         0x0000000000000000        0xc lcd.o
 .group         0x0000000000000000        0xc lcd.o
 .group         0x0000000000000000        0xc lcd.o
 .group         0x0000000000000000        0xc lcd.o
 .group         0x0000000000000000        0xc lcd.o
 .group         0x0000000000000000        0xc lcd.o
 .group         0x0000000000000000        0xc lcd.o
 .group         0x0000000000000000        0xc lcd.o
 .group         0x0000000000000000        0xc lcd.o
 .group         0x0000000000000000        0xc lcd.o
 .group         0x0000000000000000        0xc lcd.o
 .group         0x0000000000000000        0xc lcd.o
 .group         0x0000000000000000        0xc lcd.o
 .group         0x0000000000000000        0xc lcd.o
 .group         0x0000000000000000        0xc lcd.o
 .group         0x0000000000000000        0xc lcd.o
 .group         0x0000000000000000        0xc lcd.o
 .group         0x0000000000000000        0xc lcd.o
 .group         0x0000000000000000        0xc lcd.o
 .group         0x0000000000000000        0xc lcd.o
 .group         0x0000000000000000        0xc lcd.o
 .group         0x0000000000000000        0xc lcd.o
 .group         0x0000000000000000        0xc lcd.o
 .group         0x0000000000000000        0xc lcd.o
 .group         0x0000000000000000        0xc lcd.o
 .group         0x0000000000000000        0xc lcd.o
 .group         0x0000000000000000        0xc lcd.o
 .group         0x0000000000000000        0xc lcd.o
 .group         0x0000000000000000        0xc lcd.o
 .group         0x0000000000000000        0xc lcd.o
 .group         0x0000000000000000        0xc lcd.o
 .group         0x0000000000000000        0xc lcd.o
 .group         0x0000000000000000        0xc lcd.o
 .text          0x0000000000000000        0x0 lcd.o
 .data          0x0000000000000000        0x0 lcd.o
 .bss           0x0000000000000000        0x0 lcd.o
 .debug_macro   0x0000000000000000      0xa9c lcd.o
 .debug_macro   0x0000000000000000      0x34e lcd.o
 .debug_macro   0x0000000000000000       0x1c lcd.o
 .debug_macro   0x0000000000000000       0x22 lcd.o
 .debug_macro   0x0000000000000000       0xe8 lcd.o
 .debug_macro   0x0000000000000000       0x76 lcd.o
 .debug_macro   0x0000000000000000      0x280 lcd.o
 .debug_macro   0x0000000000000000       0x8e lcd.o
 .debug_macro   0x0000000000000000       0x28 lcd.o
 .debug_macro   0x0000000000000000      0xcea lcd.o
 .debug_macro   0x0000000000000000       0x76 lcd.o
 .debug_macro   0x0000000000000000      0x37e lcd.o
 .debug_macro   0x0000000000000000       0xca lcd.o
 .debug_macro   0x0000000000000000       0x10 lcd.o
 .group         0x0000000000000000        0xc clock.o
 .group         0x0000000000000000        0xc clock.o
 .group         0x0000000000000000        0xc clock.o
 .group         0x0000000000000000        0xc clock.o
 .group         0x0000000000000000        0xc clock.o
 .group         0x0000000000000000        0xc clock.o
 .group         0x0000000000000000        0xc clock.o
 .group         0x0000000000000000        0xc clock.o
 .group         0x0000000000000000        0xc clock.o
 .group         0x0000000000000000        0xc clock.o
 .group         0x0000000000000000        0xc clock.o
 .group         0x0000000000000000        0xc clock.o
 .group         0x0000000000000000        0xc clock.o
 .group         0x0000000000000000        0xc clock.o
 .group         0x0000000000000000        0xc clock.o
 .group         0x0000000000000000        0xc clock.o
 .group         0x0000000000000000        0xc clock.o
 .group         0x0000000000000000        0xc clock.o
 .group         0x0000000000000000        0xc clock.o
 .group         0x0000000000000000        0xc clock.o
 .group         0x0000000000000000        0xc clock.o
 .group         0x0000000000000000        0xc clock.o
 .group         0x0000000000000000        0xc clock.o
 .group         0x0000000000000000        0xc clock.o
 .group         0x0000000000000000        0xc clock.o
 .group         0x0000000000000000        0xc clock.o
 .group         0x0000000000000000        0xc clock.o
 .group         0x0000000000000000        0xc clock.o
 .group         0x0000000000000000        0xc clock.o
 .group         0x0000000000000000        0xc clock.o
 .group         0x0000000000000000        0xc clock.o
 .group         0x0000000000000000        0xc clock.o
 .group         0x0000000000000000        0xc clock.o
 .group         0x0000000000000000        0xc clock.o
 .group         0x0000000000000000        0xc clock.o
 .group         0x0000000000000000        0xc clock.o
 .group         0x0000000000000000        0xc clock.o
 .group         0x0000000000000000        0xc clock.o
 .group         0x0000000000000000        0xc clock.o
 .group         0x0000000000000000        0xc clock.o
 .group         0x0000000000000000        0xc clock.o
 .group         0x0000000000000000        0xc clock.o
 .group         0x0000000000000000        0xc clock.o
 .text          0x0000000000000000        0x0 clock.o
 .data          0x0000000000000000        0x0 clock.o
 .bss           0x0000000000000000        0x0 clock.o
 .text.mtime    0x0000000000000000        0xc clock.o
 .debug_macro   0x0000000000000000      0xa9c clock.o
 .debug_macro   0x0000000000000000       0x22 clock.o
 .debug_macro   0x0000000000000000       0x52 clock.o
 .debug_macro   0x0000000000000000       0x18 clock.o
 .debug_macro   0x0000000000000000       0x5c clock.o
 .debug_macro   0x0000000000000000       0x35 clock.o
 .debug_macro   0x0000000000000000       0x34 clock.o
 .debug_macro   0x0000000000000000       0x16 clock.o
 .debug_macro   0x0000000000000000       0x57 clock.o
 .debug_macro   0x0000000000000000       0x97 clock.o
 .debug_macro   0x0000000000000000      0x35c clock.o
 .debug_macro   0x0000000000000000       0xf6 clock.o
 .debug_macro   0x0000000000000000       0x10 clock.o
 .debug_macro   0x0000000000000000       0x16 clock.o
 .debug_macro   0x0000000000000000       0x43 clock.o
 .debug_macro   0x0000000000000000       0x34 clock.o
 .debug_macro   0x0000000000000000       0x10 clock.o
 .debug_macro   0x0000000000000000       0x52 clock.o
 .debug_macro   0x0000000000000000      0x182 clock.o
 .debug_macro   0x0000000000000000       0x10 clock.o
 .debug_macro   0x0000000000000000       0x6a clock.o
 .debug_macro   0x0000000000000000       0xb2 clock.o
 .debug_macro   0x0000000000000000       0x16 clock.o
 .debug_macro   0x0000000000000000      0x129 clock.o
 .debug_macro   0x0000000000000000       0x1c clock.o
 .debug_macro   0x0000000000000000      0x34e clock.o
 .debug_macro   0x0000000000000000       0x22 clock.o
 .debug_macro   0x0000000000000000       0xe8 clock.o
 .debug_macro   0x0000000000000000       0x76 clock.o
 .debug_macro   0x0000000000000000      0x280 clock.o
 .debug_macro   0x0000000000000000       0x8e clock.o
 .debug_macro   0x0000000000000000       0x28 clock.o
 .debug_macro   0x0000000000000000      0xcea clock.o
 .debug_macro   0x0000000000000000       0x76 clock.o
 .debug_macro   0x0000000000000000      0x37e clock.o
 .debug_macro   0x0000000000000000       0xca clock.o
 .debug_macro   0x0000000000000000       0x6e clock.o
 .debug_macro   0x0000000000000000      0x22c clock.o
 .group         0x0000000000000000        0xc labo4.o
 .group         0x0000000000000000        0xc labo4.o
 .group         0x0000000000000000        0xc labo4.o
 .group         0x0000000000000000        0xc labo4.o
 .group         0x0000000000000000        0xc labo4.o
 .group         0x0000000000000000        0xc labo4.o
 .group         0x0000000000000000        0xc labo4.o
 .group         0x0000000000000000        0xc labo4.o
 .group         0x0000000000000000        0xc labo4.o
 .group         0x0000000000000000        0xc labo4.o
 .group         0x0000000000000000        0xc labo4.o
 .group         0x0000000000000000        0xc labo4.o
 .group         0x0000000000000000        0xc labo4.o
 .group         0x0000000000000000        0xc labo4.o
 .group         0x0000000000000000        0xc labo4.o
 .group         0x0000000000000000        0xc labo4.o
 .group         0x0000000000000000        0xc labo4.o
 .group         0x0000000000000000        0xc labo4.o
 .group         0x0000000000000000        0xc labo4.o
 .group         0x0000000000000000        0xc labo4.o
 .group         0x0000000000000000        0xc labo4.o
 .group         0x0000000000000000        0xc labo4.o
 .group         0x0000000000000000        0xc labo4.o
 .group         0x0000000000000000        0xc labo4.o
 .group         0x0000000000000000        0xc labo4.o
 .group         0x0000000000000000        0xc labo4.o
 .group         0x0000000000000000        0xc labo4.o
 .group         0x0000000000000000        0xc labo4.o
 .group         0x0000000000000000        0xc labo4.o
 .group         0x0000000000000000        0xc labo4.o
 .group         0x0000000000000000        0xc labo4.o
 .group         0x0000000000000000        0xc labo4.o
 .group         0x0000000000000000        0xc labo4.o
 .group         0x0000000000000000        0xc labo4.o
 .group         0x0000000000000000        0xc labo4.o
 .group         0x0000000000000000        0xc labo4.o
 .group         0x0000000000000000        0xc labo4.o
 .group         0x0000000000000000        0xc labo4.o
 .group         0x0000000000000000        0xc labo4.o
 .group         0x0000000000000000        0xc labo4.o
 .group         0x0000000000000000        0xc labo4.o
 .group         0x0000000000000000        0xc labo4.o
 .group         0x0000000000000000        0xc labo4.o
 .text          0x0000000000000000        0x0 labo4.o
 .data          0x0000000000000000        0x0 labo4.o
 .bss           0x0000000000000000        0x0 labo4.o
 .debug_macro   0x0000000000000000      0xa9c labo4.o
 .debug_macro   0x0000000000000000       0x22 labo4.o
 .debug_macro   0x0000000000000000       0x52 labo4.o
 .debug_macro   0x0000000000000000       0x18 labo4.o
 .debug_macro   0x0000000000000000       0x5c labo4.o
 .debug_macro   0x0000000000000000       0x35 labo4.o
 .debug_macro   0x0000000000000000       0x34 labo4.o
 .debug_macro   0x0000000000000000       0x16 labo4.o
 .debug_macro   0x0000000000000000       0x57 labo4.o
 .debug_macro   0x0000000000000000       0x97 labo4.o
 .debug_macro   0x0000000000000000      0x35c labo4.o
 .debug_macro   0x0000000000000000       0xf6 labo4.o
 .debug_macro   0x0000000000000000       0x10 labo4.o
 .debug_macro   0x0000000000000000       0x16 labo4.o
 .debug_macro   0x0000000000000000       0x43 labo4.o
 .debug_macro   0x0000000000000000       0x34 labo4.o
 .debug_macro   0x0000000000000000       0x10 labo4.o
 .debug_macro   0x0000000000000000       0x52 labo4.o
 .debug_macro   0x0000000000000000      0x182 labo4.o
 .debug_macro   0x0000000000000000       0x10 labo4.o
 .debug_macro   0x0000000000000000       0x6a labo4.o
 .debug_macro   0x0000000000000000       0xb2 labo4.o
 .debug_macro   0x0000000000000000       0x16 labo4.o
 .debug_macro   0x0000000000000000      0x129 labo4.o
 .debug_macro   0x0000000000000000       0xa2 labo4.o
 .debug_macro   0x0000000000000000       0x1c labo4.o
 .debug_macro   0x0000000000000000      0x34e labo4.o
 .debug_macro   0x0000000000000000       0x22 labo4.o
 .debug_macro   0x0000000000000000       0xe8 labo4.o
 .debug_macro   0x0000000000000000       0x76 labo4.o
 .debug_macro   0x0000000000000000      0x280 labo4.o
 .debug_macro   0x0000000000000000       0x8e labo4.o
 .debug_macro   0x0000000000000000       0x28 labo4.o
 .debug_macro   0x0000000000000000      0xcea labo4.o
 .debug_macro   0x0000000000000000       0x76 labo4.o
 .debug_macro   0x0000000000000000      0x37e labo4.o
 .debug_macro   0x0000000000000000       0xca labo4.o
 .debug_macro   0x0000000000000000       0x94 labo4.o
 .debug_macro   0x0000000000000000      0x29e labo4.o
 .debug_macro   0x0000000000000000       0xa0 labo4.o
 .debug_macro   0x0000000000000000       0x6f labo4.o
 .debug_macro   0x0000000000000000       0x10 labo4.o
 .debug_macro   0x0000000000000000       0x4c labo4.o
 .group         0x0000000000000000        0xc /home/juan/Documents/VIII_Semestre/Labo_Micros/Labos_con_Luisja/Laboratorio_Microcontroladores/Laboratorio_4/src/libopencm3-examples/libopencm3/lib/libopencm3_stm32f4.a(fmc_common_f47.o)
 .group         0x0000000000000000        0xc /home/juan/Documents/VIII_Semestre/Labo_Micros/Labos_con_Luisja/Laboratorio_Microcontroladores/Laboratorio_4/src/libopencm3-examples/libopencm3/lib/libopencm3_stm32f4.a(fmc_common_f47.o)
 .group         0x0000000000000000        0xc /home/juan/Documents/VIII_Semestre/Labo_Micros/Labos_con_Luisja/Laboratorio_Microcontroladores/Laboratorio_4/src/libopencm3-examples/libopencm3/lib/libopencm3_stm32f4.a(fmc_common_f47.o)
 .group         0x0000000000000000        0xc /home/juan/Documents/VIII_Semestre/Labo_Micros/Labos_con_Luisja/Laboratorio_Microcontroladores/Laboratorio_4/src/libopencm3-examples/libopencm3/lib/libopencm3_stm32f4.a(fmc_common_f47.o)
 .group         0x0000000000000000        0xc /home/juan/Documents/VIII_Semestre/Labo_Micros/Labos_con_Luisja/Laboratorio_Microcontroladores/Laboratorio_4/src/libopencm3-examples/libopencm3/lib/libopencm3_stm32f4.a(fmc_common_f47.o)
 .group         0x0000000000000000        0xc /home/juan/Documents/VIII_Semestre/Labo_Micros/Labos_con_Luisja/Laboratorio_Microcontroladores/Laboratorio_4/src/libopencm3-examples/libopencm3/lib/libopencm3_stm32f4.a(fmc_common_f47.o)
 .group         0x0000000000000000        0xc /home/juan/Documents/VIII_Semestre/Labo_Micros/Labos_con_Luisja/Laboratorio_Microcontroladores/Laboratorio_4/src/libopencm3-examples/libopencm3/lib/libopencm3_stm32f4.a(fmc_common_f47.o)
 .group         0x0000000000000000        0xc /home/juan/Documents/VIII_Semestre/Labo_Micros/Labos_con_Luisja/Laboratorio_Microcontroladores/Laboratorio_4/src/libopencm3-examples/libopencm3/lib/libopencm3_stm32f4.a(fmc_common_f47.o)
 .group         0x0000000000000000        0xc /home/juan/Documents/VIII_Semestre/Labo_Micros/Labos_con_Luisja/Laboratorio_Microcontroladores/Laboratorio_4/src/libopencm3-examples/libopencm3/lib/libopencm3_stm32f4.a(fmc_common_f47.o)
 .text          0x0000000000000000        0x0 /home/juan/Documents/VIII_Semestre/Labo_Micros/Labos_con_Luisja/Laboratorio_Microcontroladores/Laboratorio_4/src/libopencm3-examples/libopencm3/lib/libopencm3_stm32f4.a(fmc_common_f47.o)
 .data          0x0000000000000000        0x0 /home/juan/Documents/VIII_Semestre/Labo_Micros/Labos_con_Luisja/Laboratorio_Microcontroladores/Laboratorio_4/src/libopencm3-examples/libopencm3/lib/libopencm3_stm32f4.a(fmc_common_f47.o)
 .bss           0x0000000000000000        0x0 /home/juan/Documents/VIII_Semestre/Labo_Micros/Labos_con_Luisja/Laboratorio_Microcontroladores/Laboratorio_4/src/libopencm3-examples/libopencm3/lib/libopencm3_stm32f4.a(fmc_common_f47.o)
 .debug_macro   0x0000000000000000      0xa9c /home/juan/Documents/VIII_Semestre/Labo_Micros/Labos_con_Luisja/Laboratorio_Microcontroladores/Laboratorio_4/src/libopencm3-examples/libopencm3/lib/libopencm3_stm32f4.a(fmc_common_f47.o)
 .debug_macro   0x0000000000000000      0x34e /home/juan/Documents/VIII_Semestre/Labo_Micros/Labos_con_Luisja/Laboratorio_Microcontroladores/Laboratorio_4/src/libopencm3-examples/libopencm3/lib/libopencm3_stm32f4.a(fmc_common_f47.o)
 .debug_macro   0x0000000000000000       0x1c /home/juan/Documents/VIII_Semestre/Labo_Micros/Labos_con_Luisja/Laboratorio_Microcontroladores/Laboratorio_4/src/libopencm3-examples/libopencm3/lib/libopencm3_stm32f4.a(fmc_common_f47.o)
 .debug_macro   0x0000000000000000       0x22 /home/juan/Documents/VIII_Semestre/Labo_Micros/Labos_con_Luisja/Laboratorio_Microcontroladores/Laboratorio_4/src/libopencm3-examples/libopencm3/lib/libopencm3_stm32f4.a(fmc_common_f47.o)
 .debug_macro   0x0000000000000000       0xe8 /home/juan/Documents/VIII_Semestre/Labo_Micros/Labos_con_Luisja/Laboratorio_Microcontroladores/Laboratorio_4/src/libopencm3-examples/libopencm3/lib/libopencm3_stm32f4.a(fmc_common_f47.o)
 .debug_macro   0x0000000000000000       0x76 /home/juan/Documents/VIII_Semestre/Labo_Micros/Labos_con_Luisja/Laboratorio_Microcontroladores/Laboratorio_4/src/libopencm3-examples/libopencm3/lib/libopencm3_stm32f4.a(fmc_common_f47.o)
 .debug_macro   0x0000000000000000      0x280 /home/juan/Documents/VIII_Semestre/Labo_Micros/Labos_con_Luisja/Laboratorio_Microcontroladores/Laboratorio_4/src/libopencm3-examples/libopencm3/lib/libopencm3_stm32f4.a(fmc_common_f47.o)
 .debug_macro   0x0000000000000000      0x285 /home/juan/Documents/VIII_Semestre/Labo_Micros/Labos_con_Luisja/Laboratorio_Microcontroladores/Laboratorio_4/src/libopencm3-examples/libopencm3/lib/libopencm3_stm32f4.a(fmc_common_f47.o)
 .debug_macro   0x0000000000000000      0x2b3 /home/juan/Documents/VIII_Semestre/Labo_Micros/Labos_con_Luisja/Laboratorio_Microcontroladores/Laboratorio_4/src/libopencm3-examples/libopencm3/lib/libopencm3_stm32f4.a(fmc_common_f47.o)
 .group         0x0000000000000000        0xc /home/juan/Documents/VIII_Semestre/Labo_Micros/Labos_con_Luisja/Laboratorio_Microcontroladores/Laboratorio_4/src/libopencm3-examples/libopencm3/lib/libopencm3_stm32f4.a(gpio_common_all.o)
 .group         0x0000000000000000        0xc /home/juan/Documents/VIII_Semestre/Labo_Micros/Labos_con_Luisja/Laboratorio_Microcontroladores/Laboratorio_4/src/libopencm3-examples/libopencm3/lib/libopencm3_stm32f4.a(gpio_common_all.o)
 .group         0x0000000000000000        0xc /home/juan/Documents/VIII_Semestre/Labo_Micros/Labos_con_Luisja/Laboratorio_Microcontroladores/Laboratorio_4/src/libopencm3-examples/libopencm3/lib/libopencm3_stm32f4.a(gpio_common_all.o)
 .group         0x0000000000000000        0xc /home/juan/Documents/VIII_Semestre/Labo_Micros/Labos_con_Luisja/Laboratorio_Microcontroladores/Laboratorio_4/src/libopencm3-examples/libopencm3/lib/libopencm3_stm32f4.a(gpio_common_all.o)
 .group         0x0000000000000000        0xc /home/juan/Documents/VIII_Semestre/Labo_Micros/Labos_con_Luisja/Laboratorio_Microcontroladores/Laboratorio_4/src/libopencm3-examples/libopencm3/lib/libopencm3_stm32f4.a(gpio_common_all.o)
 .group         0x0000000000000000        0xc /home/juan/Documents/VIII_Semestre/Labo_Micros/Labos_con_Luisja/Laboratorio_Microcontroladores/Laboratorio_4/src/libopencm3-examples/libopencm3/lib/libopencm3_stm32f4.a(gpio_common_all.o)
 .group         0x0000000000000000        0xc /home/juan/Documents/VIII_Semestre/Labo_Micros/Labos_con_Luisja/Laboratorio_Microcontroladores/Laboratorio_4/src/libopencm3-examples/libopencm3/lib/libopencm3_stm32f4.a(gpio_common_all.o)
 .group         0x0000000000000000        0xc /home/juan/Documents/VIII_Semestre/Labo_Micros/Labos_con_Luisja/Laboratorio_Microcontroladores/Laboratorio_4/src/libopencm3-examples/libopencm3/lib/libopencm3_stm32f4.a(gpio_common_all.o)
 .group         0x0000000000000000        0xc /home/juan/Documents/VIII_Semestre/Labo_Micros/Labos_con_Luisja/Laboratorio_Microcontroladores/Laboratorio_4/src/libopencm3-examples/libopencm3/lib/libopencm3_stm32f4.a(gpio_common_all.o)
 .group         0x0000000000000000        0xc /home/juan/Documents/VIII_Semestre/Labo_Micros/Labos_con_Luisja/Laboratorio_Microcontroladores/Laboratorio_4/src/libopencm3-examples/libopencm3/lib/libopencm3_stm32f4.a(gpio_common_all.o)
 .text          0x0000000000000000        0x0 /home/juan/Documents/VIII_Semestre/Labo_Micros/Labos_con_Luisja/Laboratorio_Microcontroladores/Laboratorio_4/src/libopencm3-examples/libopencm3/lib/libopencm3_stm32f4.a(gpio_common_all.o)
 .data          0x0000000000000000        0x0 /home/juan/Documents/VIII_Semestre/Labo_Micros/Labos_con_Luisja/Laboratorio_Microcontroladores/Laboratorio_4/src/libopencm3-examples/libopencm3/lib/libopencm3_stm32f4.a(gpio_common_all.o)
 .bss           0x0000000000000000        0x0 /home/juan/Documents/VIII_Semestre/Labo_Micros/Labos_con_Luisja/Laboratorio_Microcontroladores/Laboratorio_4/src/libopencm3-examples/libopencm3/lib/libopencm3_stm32f4.a(gpio_common_all.o)
 .text.gpio_get
                0x0000000000000000        0x6 /home/juan/Documents/VIII_Semestre/Labo_Micros/Labos_con_Luisja/Laboratorio_Microcontroladores/Laboratorio_4/src/libopencm3-examples/libopencm3/lib/libopencm3_stm32f4.a(gpio_common_all.o)
 .text.gpio_port_read
                0x0000000000000000        0x6 /home/juan/Documents/VIII_Semestre/Labo_Micros/Labos_con_Luisja/Laboratorio_Microcontroladores/Laboratorio_4/src/libopencm3-examples/libopencm3/lib/libopencm3_stm32f4.a(gpio_common_all.o)
 .text.gpio_port_write
                0x0000000000000000        0x4 /home/juan/Documents/VIII_Semestre/Labo_Micros/Labos_con_Luisja/Laboratorio_Microcontroladores/Laboratorio_4/src/libopencm3-examples/libopencm3/lib/libopencm3_stm32f4.a(gpio_common_all.o)
 .text.gpio_port_config_lock
                0x0000000000000000       0x10 /home/juan/Documents/VIII_Semestre/Labo_Micros/Labos_con_Luisja/Laboratorio_Microcontroladores/Laboratorio_4/src/libopencm3-examples/libopencm3/lib/libopencm3_stm32f4.a(gpio_common_all.o)
 .debug_macro   0x0000000000000000      0xa9c /home/juan/Documents/VIII_Semestre/Labo_Micros/Labos_con_Luisja/Laboratorio_Microcontroladores/Laboratorio_4/src/libopencm3-examples/libopencm3/lib/libopencm3_stm32f4.a(gpio_common_all.o)
 .debug_macro   0x0000000000000000       0x1c /home/juan/Documents/VIII_Semestre/Labo_Micros/Labos_con_Luisja/Laboratorio_Microcontroladores/Laboratorio_4/src/libopencm3-examples/libopencm3/lib/libopencm3_stm32f4.a(gpio_common_all.o)
 .debug_macro   0x0000000000000000      0x34e /home/juan/Documents/VIII_Semestre/Labo_Micros/Labos_con_Luisja/Laboratorio_Microcontroladores/Laboratorio_4/src/libopencm3-examples/libopencm3/lib/libopencm3_stm32f4.a(gpio_common_all.o)
 .debug_macro   0x0000000000000000       0x22 /home/juan/Documents/VIII_Semestre/Labo_Micros/Labos_con_Luisja/Laboratorio_Microcontroladores/Laboratorio_4/src/libopencm3-examples/libopencm3/lib/libopencm3_stm32f4.a(gpio_common_all.o)
 .debug_macro   0x0000000000000000       0xe8 /home/juan/Documents/VIII_Semestre/Labo_Micros/Labos_con_Luisja/Laboratorio_Microcontroladores/Laboratorio_4/src/libopencm3-examples/libopencm3/lib/libopencm3_stm32f4.a(gpio_common_all.o)
 .debug_macro   0x0000000000000000       0x76 /home/juan/Documents/VIII_Semestre/Labo_Micros/Labos_con_Luisja/Laboratorio_Microcontroladores/Laboratorio_4/src/libopencm3-examples/libopencm3/lib/libopencm3_stm32f4.a(gpio_common_all.o)
 .debug_macro   0x0000000000000000      0x280 /home/juan/Documents/VIII_Semestre/Labo_Micros/Labos_con_Luisja/Laboratorio_Microcontroladores/Laboratorio_4/src/libopencm3-examples/libopencm3/lib/libopencm3_stm32f4.a(gpio_common_all.o)
 .debug_macro   0x0000000000000000       0x76 /home/juan/Documents/VIII_Semestre/Labo_Micros/Labos_con_Luisja/Laboratorio_Microcontroladores/Laboratorio_4/src/libopencm3-examples/libopencm3/lib/libopencm3_stm32f4.a(gpio_common_all.o)
 .debug_macro   0x0000000000000000      0x37e /home/juan/Documents/VIII_Semestre/Labo_Micros/Labos_con_Luisja/Laboratorio_Microcontroladores/Laboratorio_4/src/libopencm3-examples/libopencm3/lib/libopencm3_stm32f4.a(gpio_common_all.o)
 .debug_macro   0x0000000000000000       0xca /home/juan/Documents/VIII_Semestre/Labo_Micros/Labos_con_Luisja/Laboratorio_Microcontroladores/Laboratorio_4/src/libopencm3-examples/libopencm3/lib/libopencm3_stm32f4.a(gpio_common_all.o)
 .group         0x0000000000000000        0xc /home/juan/Documents/VIII_Semestre/Labo_Micros/Labos_con_Luisja/Laboratorio_Microcontroladores/Laboratorio_4/src/libopencm3-examples/libopencm3/lib/libopencm3_stm32f4.a(gpio_common_f0234.o)
 .group         0x0000000000000000        0xc /home/juan/Documents/VIII_Semestre/Labo_Micros/Labos_con_Luisja/Laboratorio_Microcontroladores/Laboratorio_4/src/libopencm3-examples/libopencm3/lib/libopencm3_stm32f4.a(gpio_common_f0234.o)
 .group         0x0000000000000000        0xc /home/juan/Documents/VIII_Semestre/Labo_Micros/Labos_con_Luisja/Laboratorio_Microcontroladores/Laboratorio_4/src/libopencm3-examples/libopencm3/lib/libopencm3_stm32f4.a(gpio_common_f0234.o)
 .group         0x0000000000000000        0xc /home/juan/Documents/VIII_Semestre/Labo_Micros/Labos_con_Luisja/Laboratorio_Microcontroladores/Laboratorio_4/src/libopencm3-examples/libopencm3/lib/libopencm3_stm32f4.a(gpio_common_f0234.o)
 .group         0x0000000000000000        0xc /home/juan/Documents/VIII_Semestre/Labo_Micros/Labos_con_Luisja/Laboratorio_Microcontroladores/Laboratorio_4/src/libopencm3-examples/libopencm3/lib/libopencm3_stm32f4.a(gpio_common_f0234.o)
 .group         0x0000000000000000        0xc /home/juan/Documents/VIII_Semestre/Labo_Micros/Labos_con_Luisja/Laboratorio_Microcontroladores/Laboratorio_4/src/libopencm3-examples/libopencm3/lib/libopencm3_stm32f4.a(gpio_common_f0234.o)
 .group         0x0000000000000000        0xc /home/juan/Documents/VIII_Semestre/Labo_Micros/Labos_con_Luisja/Laboratorio_Microcontroladores/Laboratorio_4/src/libopencm3-examples/libopencm3/lib/libopencm3_stm32f4.a(gpio_common_f0234.o)
 .group         0x0000000000000000        0xc /home/juan/Documents/VIII_Semestre/Labo_Micros/Labos_con_Luisja/Laboratorio_Microcontroladores/Laboratorio_4/src/libopencm3-examples/libopencm3/lib/libopencm3_stm32f4.a(gpio_common_f0234.o)
 .group         0x0000000000000000        0xc /home/juan/Documents/VIII_Semestre/Labo_Micros/Labos_con_Luisja/Laboratorio_Microcontroladores/Laboratorio_4/src/libopencm3-examples/libopencm3/lib/libopencm3_stm32f4.a(gpio_common_f0234.o)
 .group         0x0000000000000000        0xc /home/juan/Documents/VIII_Semestre/Labo_Micros/Labos_con_Luisja/Laboratorio_Microcontroladores/Laboratorio_4/src/libopencm3-examples/libopencm3/lib/libopencm3_stm32f4.a(gpio_common_f0234.o)
 .text          0x0000000000000000        0x0 /home/juan/Documents/VIII_Semestre/Labo_Micros/Labos_con_Luisja/Laboratorio_Microcontroladores/Laboratorio_4/src/libopencm3-examples/libopencm3/lib/libopencm3_stm32f4.a(gpio_common_f0234.o)
 .data          0x0000000000000000        0x0 /home/juan/Documents/VIII_Semestre/Labo_Micros/Labos_con_Luisja/Laboratorio_Microcontroladores/Laboratorio_4/src/libopencm3-examples/libopencm3/lib/libopencm3_stm32f4.a(gpio_common_f0234.o)
 .bss           0x0000000000000000        0x0 /home/juan/Documents/VIII_Semestre/Labo_Micros/Labos_con_Luisja/Laboratorio_Microcontroladores/Laboratorio_4/src/libopencm3-examples/libopencm3/lib/libopencm3_stm32f4.a(gpio_common_f0234.o)
 .debug_macro   0x0000000000000000      0xa9c /home/juan/Documents/VIII_Semestre/Labo_Micros/Labos_con_Luisja/Laboratorio_Microcontroladores/Laboratorio_4/src/libopencm3-examples/libopencm3/lib/libopencm3_stm32f4.a(gpio_common_f0234.o)
 .debug_macro   0x0000000000000000       0x1c /home/juan/Documents/VIII_Semestre/Labo_Micros/Labos_con_Luisja/Laboratorio_Microcontroladores/Laboratorio_4/src/libopencm3-examples/libopencm3/lib/libopencm3_stm32f4.a(gpio_common_f0234.o)
 .debug_macro   0x0000000000000000      0x34e /home/juan/Documents/VIII_Semestre/Labo_Micros/Labos_con_Luisja/Laboratorio_Microcontroladores/Laboratorio_4/src/libopencm3-examples/libopencm3/lib/libopencm3_stm32f4.a(gpio_common_f0234.o)
 .debug_macro   0x0000000000000000       0x22 /home/juan/Documents/VIII_Semestre/Labo_Micros/Labos_con_Luisja/Laboratorio_Microcontroladores/Laboratorio_4/src/libopencm3-examples/libopencm3/lib/libopencm3_stm32f4.a(gpio_common_f0234.o)
 .debug_macro   0x0000000000000000       0xe8 /home/juan/Documents/VIII_Semestre/Labo_Micros/Labos_con_Luisja/Laboratorio_Microcontroladores/Laboratorio_4/src/libopencm3-examples/libopencm3/lib/libopencm3_stm32f4.a(gpio_common_f0234.o)
 .debug_macro   0x0000000000000000       0x76 /home/juan/Documents/VIII_Semestre/Labo_Micros/Labos_con_Luisja/Laboratorio_Microcontroladores/Laboratorio_4/src/libopencm3-examples/libopencm3/lib/libopencm3_stm32f4.a(gpio_common_f0234.o)
 .debug_macro   0x0000000000000000      0x280 /home/juan/Documents/VIII_Semestre/Labo_Micros/Labos_con_Luisja/Laboratorio_Microcontroladores/Laboratorio_4/src/libopencm3-examples/libopencm3/lib/libopencm3_stm32f4.a(gpio_common_f0234.o)
 .debug_macro   0x0000000000000000       0x76 /home/juan/Documents/VIII_Semestre/Labo_Micros/Labos_con_Luisja/Laboratorio_Microcontroladores/Laboratorio_4/src/libopencm3-examples/libopencm3/lib/libopencm3_stm32f4.a(gpio_common_f0234.o)
 .debug_macro   0x0000000000000000      0x37e /home/juan/Documents/VIII_Semestre/Labo_Micros/Labos_con_Luisja/Laboratorio_Microcontroladores/Laboratorio_4/src/libopencm3-examples/libopencm3/lib/libopencm3_stm32f4.a(gpio_common_f0234.o)
 .debug_macro   0x0000000000000000       0xca /home/juan/Documents/VIII_Semestre/Labo_Micros/Labos_con_Luisja/Laboratorio_Microcontroladores/Laboratorio_4/src/libopencm3-examples/libopencm3/lib/libopencm3_stm32f4.a(gpio_common_f0234.o)
 .group         0x0000000000000000        0xc /home/juan/Documents/VIII_Semestre/Labo_Micros/Labos_con_Luisja/Laboratorio_Microcontroladores/Laboratorio_4/src/libopencm3-examples/libopencm3/lib/libopencm3_stm32f4.a(rcc_common_all.o)
 .group         0x0000000000000000        0xc /home/juan/Documents/VIII_Semestre/Labo_Micros/Labos_con_Luisja/Laboratorio_Microcontroladores/Laboratorio_4/src/libopencm3-examples/libopencm3/lib/libopencm3_stm32f4.a(rcc_common_all.o)
 .group         0x0000000000000000        0xc /home/juan/Documents/VIII_Semestre/Labo_Micros/Labos_con_Luisja/Laboratorio_Microcontroladores/Laboratorio_4/src/libopencm3-examples/libopencm3/lib/libopencm3_stm32f4.a(rcc_common_all.o)
 .group         0x0000000000000000        0xc /home/juan/Documents/VIII_Semestre/Labo_Micros/Labos_con_Luisja/Laboratorio_Microcontroladores/Laboratorio_4/src/libopencm3-examples/libopencm3/lib/libopencm3_stm32f4.a(rcc_common_all.o)
 .group         0x0000000000000000        0xc /home/juan/Documents/VIII_Semestre/Labo_Micros/Labos_con_Luisja/Laboratorio_Microcontroladores/Laboratorio_4/src/libopencm3-examples/libopencm3/lib/libopencm3_stm32f4.a(rcc_common_all.o)
 .group         0x0000000000000000        0xc /home/juan/Documents/VIII_Semestre/Labo_Micros/Labos_con_Luisja/Laboratorio_Microcontroladores/Laboratorio_4/src/libopencm3-examples/libopencm3/lib/libopencm3_stm32f4.a(rcc_common_all.o)
 .group         0x0000000000000000        0xc /home/juan/Documents/VIII_Semestre/Labo_Micros/Labos_con_Luisja/Laboratorio_Microcontroladores/Laboratorio_4/src/libopencm3-examples/libopencm3/lib/libopencm3_stm32f4.a(rcc_common_all.o)
 .group         0x0000000000000000        0xc /home/juan/Documents/VIII_Semestre/Labo_Micros/Labos_con_Luisja/Laboratorio_Microcontroladores/Laboratorio_4/src/libopencm3-examples/libopencm3/lib/libopencm3_stm32f4.a(rcc_common_all.o)
 .group         0x0000000000000000        0xc /home/juan/Documents/VIII_Semestre/Labo_Micros/Labos_con_Luisja/Laboratorio_Microcontroladores/Laboratorio_4/src/libopencm3-examples/libopencm3/lib/libopencm3_stm32f4.a(rcc_common_all.o)
 .group         0x0000000000000000        0xc /home/juan/Documents/VIII_Semestre/Labo_Micros/Labos_con_Luisja/Laboratorio_Microcontroladores/Laboratorio_4/src/libopencm3-examples/libopencm3/lib/libopencm3_stm32f4.a(rcc_common_all.o)
 .text          0x0000000000000000        0x0 /home/juan/Documents/VIII_Semestre/Labo_Micros/Labos_con_Luisja/Laboratorio_Microcontroladores/Laboratorio_4/src/libopencm3-examples/libopencm3/lib/libopencm3_stm32f4.a(rcc_common_all.o)
 .data          0x0000000000000000        0x0 /home/juan/Documents/VIII_Semestre/Labo_Micros/Labos_con_Luisja/Laboratorio_Microcontroladores/Laboratorio_4/src/libopencm3-examples/libopencm3/lib/libopencm3_stm32f4.a(rcc_common_all.o)
 .bss           0x0000000000000000        0x0 /home/juan/Documents/VIII_Semestre/Labo_Micros/Labos_con_Luisja/Laboratorio_Microcontroladores/Laboratorio_4/src/libopencm3-examples/libopencm3/lib/libopencm3_stm32f4.a(rcc_common_all.o)
 .text.rcc_peripheral_enable_clock
                0x0000000000000000        0x8 /home/juan/Documents/VIII_Semestre/Labo_Micros/Labos_con_Luisja/Laboratorio_Microcontroladores/Laboratorio_4/src/libopencm3-examples/libopencm3/lib/libopencm3_stm32f4.a(rcc_common_all.o)
 .text.rcc_peripheral_disable_clock
                0x0000000000000000        0xa /home/juan/Documents/VIII_Semestre/Labo_Micros/Labos_con_Luisja/Laboratorio_Microcontroladores/Laboratorio_4/src/libopencm3-examples/libopencm3/lib/libopencm3_stm32f4.a(rcc_common_all.o)
 .text.rcc_peripheral_reset
                0x0000000000000000        0x8 /home/juan/Documents/VIII_Semestre/Labo_Micros/Labos_con_Luisja/Laboratorio_Microcontroladores/Laboratorio_4/src/libopencm3-examples/libopencm3/lib/libopencm3_stm32f4.a(rcc_common_all.o)
 .text.rcc_peripheral_clear_reset
                0x0000000000000000        0xa /home/juan/Documents/VIII_Semestre/Labo_Micros/Labos_con_Luisja/Laboratorio_Microcontroladores/Laboratorio_4/src/libopencm3-examples/libopencm3/lib/libopencm3_stm32f4.a(rcc_common_all.o)
 .text.rcc_periph_clock_disable
                0x0000000000000000       0x1e /home/juan/Documents/VIII_Semestre/Labo_Micros/Labos_con_Luisja/Laboratorio_Microcontroladores/Laboratorio_4/src/libopencm3-examples/libopencm3/lib/libopencm3_stm32f4.a(rcc_common_all.o)
 .text.rcc_periph_reset_pulse
                0x0000000000000000       0x24 /home/juan/Documents/VIII_Semestre/Labo_Micros/Labos_con_Luisja/Laboratorio_Microcontroladores/Laboratorio_4/src/libopencm3-examples/libopencm3/lib/libopencm3_stm32f4.a(rcc_common_all.o)
 .text.rcc_periph_reset_hold
                0x0000000000000000        0x4 /home/juan/Documents/VIII_Semestre/Labo_Micros/Labos_con_Luisja/Laboratorio_Microcontroladores/Laboratorio_4/src/libopencm3-examples/libopencm3/lib/libopencm3_stm32f4.a(rcc_common_all.o)
 .text.rcc_periph_reset_release
                0x0000000000000000        0x4 /home/juan/Documents/VIII_Semestre/Labo_Micros/Labos_con_Luisja/Laboratorio_Microcontroladores/Laboratorio_4/src/libopencm3-examples/libopencm3/lib/libopencm3_stm32f4.a(rcc_common_all.o)
 .text.rcc_set_mco
                0x0000000000000000       0x14 /home/juan/Documents/VIII_Semestre/Labo_Micros/Labos_con_Luisja/Laboratorio_Microcontroladores/Laboratorio_4/src/libopencm3-examples/libopencm3/lib/libopencm3_stm32f4.a(rcc_common_all.o)
 .text.rcc_osc_bypass_enable
                0x0000000000000000       0x28 /home/juan/Documents/VIII_Semestre/Labo_Micros/Labos_con_Luisja/Laboratorio_Microcontroladores/Laboratorio_4/src/libopencm3-examples/libopencm3/lib/libopencm3_stm32f4.a(rcc_common_all.o)
 .text.rcc_osc_bypass_disable
                0x0000000000000000       0x28 /home/juan/Documents/VIII_Semestre/Labo_Micros/Labos_con_Luisja/Laboratorio_Microcontroladores/Laboratorio_4/src/libopencm3-examples/libopencm3/lib/libopencm3_stm32f4.a(rcc_common_all.o)
 .text.rcc_get_div_from_hpre
                0x0000000000000000       0x1c /home/juan/Documents/VIII_Semestre/Labo_Micros/Labos_con_Luisja/Laboratorio_Microcontroladores/Laboratorio_4/src/libopencm3-examples/libopencm3/lib/libopencm3_stm32f4.a(rcc_common_all.o)
 .debug_macro   0x0000000000000000      0xa9c /home/juan/Documents/VIII_Semestre/Labo_Micros/Labos_con_Luisja/Laboratorio_Microcontroladores/Laboratorio_4/src/libopencm3-examples/libopencm3/lib/libopencm3_stm32f4.a(rcc_common_all.o)
 .debug_macro   0x0000000000000000       0x1c /home/juan/Documents/VIII_Semestre/Labo_Micros/Labos_con_Luisja/Laboratorio_Microcontroladores/Laboratorio_4/src/libopencm3-examples/libopencm3/lib/libopencm3_stm32f4.a(rcc_common_all.o)
 .debug_macro   0x0000000000000000      0x34e /home/juan/Documents/VIII_Semestre/Labo_Micros/Labos_con_Luisja/Laboratorio_Microcontroladores/Laboratorio_4/src/libopencm3-examples/libopencm3/lib/libopencm3_stm32f4.a(rcc_common_all.o)
 .debug_macro   0x0000000000000000       0x22 /home/juan/Documents/VIII_Semestre/Labo_Micros/Labos_con_Luisja/Laboratorio_Microcontroladores/Laboratorio_4/src/libopencm3-examples/libopencm3/lib/libopencm3_stm32f4.a(rcc_common_all.o)
 .debug_macro   0x0000000000000000       0xe8 /home/juan/Documents/VIII_Semestre/Labo_Micros/Labos_con_Luisja/Laboratorio_Microcontroladores/Laboratorio_4/src/libopencm3-examples/libopencm3/lib/libopencm3_stm32f4.a(rcc_common_all.o)
 .debug_macro   0x0000000000000000       0x76 /home/juan/Documents/VIII_Semestre/Labo_Micros/Labos_con_Luisja/Laboratorio_Microcontroladores/Laboratorio_4/src/libopencm3-examples/libopencm3/lib/libopencm3_stm32f4.a(rcc_common_all.o)
 .debug_macro   0x0000000000000000      0x280 /home/juan/Documents/VIII_Semestre/Labo_Micros/Labos_con_Luisja/Laboratorio_Microcontroladores/Laboratorio_4/src/libopencm3-examples/libopencm3/lib/libopencm3_stm32f4.a(rcc_common_all.o)
 .debug_macro   0x0000000000000000       0x8e /home/juan/Documents/VIII_Semestre/Labo_Micros/Labos_con_Luisja/Laboratorio_Microcontroladores/Laboratorio_4/src/libopencm3-examples/libopencm3/lib/libopencm3_stm32f4.a(rcc_common_all.o)
 .debug_macro   0x0000000000000000       0x28 /home/juan/Documents/VIII_Semestre/Labo_Micros/Labos_con_Luisja/Laboratorio_Microcontroladores/Laboratorio_4/src/libopencm3-examples/libopencm3/lib/libopencm3_stm32f4.a(rcc_common_all.o)
 .debug_macro   0x0000000000000000      0xcea /home/juan/Documents/VIII_Semestre/Labo_Micros/Labos_con_Luisja/Laboratorio_Microcontroladores/Laboratorio_4/src/libopencm3-examples/libopencm3/lib/libopencm3_stm32f4.a(rcc_common_all.o)
 .group         0x0000000000000000        0xc /home/juan/Documents/VIII_Semestre/Labo_Micros/Labos_con_Luisja/Laboratorio_Microcontroladores/Laboratorio_4/src/libopencm3-examples/libopencm3/lib/libopencm3_stm32f4.a(rcc.o)
 .group         0x0000000000000000        0xc /home/juan/Documents/VIII_Semestre/Labo_Micros/Labos_con_Luisja/Laboratorio_Microcontroladores/Laboratorio_4/src/libopencm3-examples/libopencm3/lib/libopencm3_stm32f4.a(rcc.o)
 .group         0x0000000000000000        0xc /home/juan/Documents/VIII_Semestre/Labo_Micros/Labos_con_Luisja/Laboratorio_Microcontroladores/Laboratorio_4/src/libopencm3-examples/libopencm3/lib/libopencm3_stm32f4.a(rcc.o)
 .group         0x0000000000000000        0xc /home/juan/Documents/VIII_Semestre/Labo_Micros/Labos_con_Luisja/Laboratorio_Microcontroladores/Laboratorio_4/src/libopencm3-examples/libopencm3/lib/libopencm3_stm32f4.a(rcc.o)
 .group         0x0000000000000000        0xc /home/juan/Documents/VIII_Semestre/Labo_Micros/Labos_con_Luisja/Laboratorio_Microcontroladores/Laboratorio_4/src/libopencm3-examples/libopencm3/lib/libopencm3_stm32f4.a(rcc.o)
 .group         0x0000000000000000        0xc /home/juan/Documents/VIII_Semestre/Labo_Micros/Labos_con_Luisja/Laboratorio_Microcontroladores/Laboratorio_4/src/libopencm3-examples/libopencm3/lib/libopencm3_stm32f4.a(rcc.o)
 .group         0x0000000000000000        0xc /home/juan/Documents/VIII_Semestre/Labo_Micros/Labos_con_Luisja/Laboratorio_Microcontroladores/Laboratorio_4/src/libopencm3-examples/libopencm3/lib/libopencm3_stm32f4.a(rcc.o)
 .group         0x0000000000000000        0xc /home/juan/Documents/VIII_Semestre/Labo_Micros/Labos_con_Luisja/Laboratorio_Microcontroladores/Laboratorio_4/src/libopencm3-examples/libopencm3/lib/libopencm3_stm32f4.a(rcc.o)
 .group         0x0000000000000000        0xc /home/juan/Documents/VIII_Semestre/Labo_Micros/Labos_con_Luisja/Laboratorio_Microcontroladores/Laboratorio_4/src/libopencm3-examples/libopencm3/lib/libopencm3_stm32f4.a(rcc.o)
 .group         0x0000000000000000        0xc /home/juan/Documents/VIII_Semestre/Labo_Micros/Labos_con_Luisja/Laboratorio_Microcontroladores/Laboratorio_4/src/libopencm3-examples/libopencm3/lib/libopencm3_stm32f4.a(rcc.o)
 .group         0x0000000000000000        0xc /home/juan/Documents/VIII_Semestre/Labo_Micros/Labos_con_Luisja/Laboratorio_Microcontroladores/Laboratorio_4/src/libopencm3-examples/libopencm3/lib/libopencm3_stm32f4.a(rcc.o)
 .group         0x0000000000000000        0xc /home/juan/Documents/VIII_Semestre/Labo_Micros/Labos_con_Luisja/Laboratorio_Microcontroladores/Laboratorio_4/src/libopencm3-examples/libopencm3/lib/libopencm3_stm32f4.a(rcc.o)
 .group         0x0000000000000000        0xc /home/juan/Documents/VIII_Semestre/Labo_Micros/Labos_con_Luisja/Laboratorio_Microcontroladores/Laboratorio_4/src/libopencm3-examples/libopencm3/lib/libopencm3_stm32f4.a(rcc.o)
 .group         0x0000000000000000        0xc /home/juan/Documents/VIII_Semestre/Labo_Micros/Labos_con_Luisja/Laboratorio_Microcontroladores/Laboratorio_4/src/libopencm3-examples/libopencm3/lib/libopencm3_stm32f4.a(rcc.o)
 .text          0x0000000000000000        0x0 /home/juan/Documents/VIII_Semestre/Labo_Micros/Labos_con_Luisja/Laboratorio_Microcontroladores/Laboratorio_4/src/libopencm3-examples/libopencm3/lib/libopencm3_stm32f4.a(rcc.o)
 .data          0x0000000000000000        0x0 /home/juan/Documents/VIII_Semestre/Labo_Micros/Labos_con_Luisja/Laboratorio_Microcontroladores/Laboratorio_4/src/libopencm3-examples/libopencm3/lib/libopencm3_stm32f4.a(rcc.o)
 .bss           0x0000000000000000        0x0 /home/juan/Documents/VIII_Semestre/Labo_Micros/Labos_con_Luisja/Laboratorio_Microcontroladores/Laboratorio_4/src/libopencm3-examples/libopencm3/lib/libopencm3_stm32f4.a(rcc.o)
 .text.rcc_osc_ready_int_clear
                0x0000000000000000       0x5c /home/juan/Documents/VIII_Semestre/Labo_Micros/Labos_con_Luisja/Laboratorio_Microcontroladores/Laboratorio_4/src/libopencm3-examples/libopencm3/lib/libopencm3_stm32f4.a(rcc.o)
 .text.rcc_osc_ready_int_enable
                0x0000000000000000       0x5c /home/juan/Documents/VIII_Semestre/Labo_Micros/Labos_con_Luisja/Laboratorio_Microcontroladores/Laboratorio_4/src/libopencm3-examples/libopencm3/lib/libopencm3_stm32f4.a(rcc.o)
 .text.rcc_osc_ready_int_disable
                0x0000000000000000       0x5c /home/juan/Documents/VIII_Semestre/Labo_Micros/Labos_con_Luisja/Laboratorio_Microcontroladores/Laboratorio_4/src/libopencm3-examples/libopencm3/lib/libopencm3_stm32f4.a(rcc.o)
 .text.rcc_osc_ready_int_flag
                0x0000000000000000       0x60 /home/juan/Documents/VIII_Semestre/Labo_Micros/Labos_con_Luisja/Laboratorio_Microcontroladores/Laboratorio_4/src/libopencm3-examples/libopencm3/lib/libopencm3_stm32f4.a(rcc.o)
 .text.rcc_css_int_clear
                0x0000000000000000       0x10 /home/juan/Documents/VIII_Semestre/Labo_Micros/Labos_con_Luisja/Laboratorio_Microcontroladores/Laboratorio_4/src/libopencm3-examples/libopencm3/lib/libopencm3_stm32f4.a(rcc.o)
 .text.rcc_css_int_flag
                0x0000000000000000       0x10 /home/juan/Documents/VIII_Semestre/Labo_Micros/Labos_con_Luisja/Laboratorio_Microcontroladores/Laboratorio_4/src/libopencm3-examples/libopencm3/lib/libopencm3_stm32f4.a(rcc.o)
 .text.rcc_wait_for_sysclk_status
                0x0000000000000000       0x38 /home/juan/Documents/VIII_Semestre/Labo_Micros/Labos_con_Luisja/Laboratorio_Microcontroladores/Laboratorio_4/src/libopencm3-examples/libopencm3/lib/libopencm3_stm32f4.a(rcc.o)
 .text.rcc_css_enable
                0x0000000000000000       0x10 /home/juan/Documents/VIII_Semestre/Labo_Micros/Labos_con_Luisja/Laboratorio_Microcontroladores/Laboratorio_4/src/libopencm3-examples/libopencm3/lib/libopencm3_stm32f4.a(rcc.o)
 .text.rcc_css_disable
                0x0000000000000000       0x10 /home/juan/Documents/VIII_Semestre/Labo_Micros/Labos_con_Luisja/Laboratorio_Microcontroladores/Laboratorio_4/src/libopencm3-examples/libopencm3/lib/libopencm3_stm32f4.a(rcc.o)
 .text.rcc_plli2s_config
                0x0000000000000000       0x1c /home/juan/Documents/VIII_Semestre/Labo_Micros/Labos_con_Luisja/Laboratorio_Microcontroladores/Laboratorio_4/src/libopencm3-examples/libopencm3/lib/libopencm3_stm32f4.a(rcc.o)
 .text.rcc_pllsai_config
                0x0000000000000000       0x2c /home/juan/Documents/VIII_Semestre/Labo_Micros/Labos_con_Luisja/Laboratorio_Microcontroladores/Laboratorio_4/src/libopencm3-examples/libopencm3/lib/libopencm3_stm32f4.a(rcc.o)
 .text.rcc_pllsai_postscalers
                0x0000000000000000       0x24 /home/juan/Documents/VIII_Semestre/Labo_Micros/Labos_con_Luisja/Laboratorio_Microcontroladores/Laboratorio_4/src/libopencm3-examples/libopencm3/lib/libopencm3_stm32f4.a(rcc.o)
 .text.rcc_set_pll_source
                0x0000000000000000       0x14 /home/juan/Documents/VIII_Semestre/Labo_Micros/Labos_con_Luisja/Laboratorio_Microcontroladores/Laboratorio_4/src/libopencm3-examples/libopencm3/lib/libopencm3_stm32f4.a(rcc.o)
 .text.rcc_set_rtcpre
                0x0000000000000000       0x14 /home/juan/Documents/VIII_Semestre/Labo_Micros/Labos_con_Luisja/Laboratorio_Microcontroladores/Laboratorio_4/src/libopencm3-examples/libopencm3/lib/libopencm3_stm32f4.a(rcc.o)
 .text.rcc_system_clock_source
                0x0000000000000000       0x10 /home/juan/Documents/VIII_Semestre/Labo_Micros/Labos_con_Luisja/Laboratorio_Microcontroladores/Laboratorio_4/src/libopencm3-examples/libopencm3/lib/libopencm3_stm32f4.a(rcc.o)
 .text.rcc_clock_setup_hse_3v3
                0x0000000000000000        0x4 /home/juan/Documents/VIII_Semestre/Labo_Micros/Labos_con_Luisja/Laboratorio_Microcontroladores/Laboratorio_4/src/libopencm3-examples/libopencm3/lib/libopencm3_stm32f4.a(rcc.o)
 .text.rcc_get_usart_clk_freq
                0x0000000000000000       0x20 /home/juan/Documents/VIII_Semestre/Labo_Micros/Labos_con_Luisja/Laboratorio_Microcontroladores/Laboratorio_4/src/libopencm3-examples/libopencm3/lib/libopencm3_stm32f4.a(rcc.o)
 .text.rcc_get_timer_clk_freq
                0x0000000000000000       0x34 /home/juan/Documents/VIII_Semestre/Labo_Micros/Labos_con_Luisja/Laboratorio_Microcontroladores/Laboratorio_4/src/libopencm3-examples/libopencm3/lib/libopencm3_stm32f4.a(rcc.o)
 .text.rcc_get_i2c_clk_freq
                0x0000000000000000        0xc /home/juan/Documents/VIII_Semestre/Labo_Micros/Labos_con_Luisja/Laboratorio_Microcontroladores/Laboratorio_4/src/libopencm3-examples/libopencm3/lib/libopencm3_stm32f4.a(rcc.o)
 .text.rcc_get_spi_clk_freq
                0x0000000000000000       0x20 /home/juan/Documents/VIII_Semestre/Labo_Micros/Labos_con_Luisja/Laboratorio_Microcontroladores/Laboratorio_4/src/libopencm3-examples/libopencm3/lib/libopencm3_stm32f4.a(rcc.o)
 .rodata.rcc_hse_12mhz_3v3
                0x0000000000000000       0x54 /home/juan/Documents/VIII_Semestre/Labo_Micros/Labos_con_Luisja/Laboratorio_Microcontroladores/Laboratorio_4/src/libopencm3-examples/libopencm3/lib/libopencm3_stm32f4.a(rcc.o)
 .rodata.rcc_hse_16mhz_3v3
                0x0000000000000000       0x54 /home/juan/Documents/VIII_Semestre/Labo_Micros/Labos_con_Luisja/Laboratorio_Microcontroladores/Laboratorio_4/src/libopencm3-examples/libopencm3/lib/libopencm3_stm32f4.a(rcc.o)
 .rodata.rcc_hse_25mhz_3v3
                0x0000000000000000       0x54 /home/juan/Documents/VIII_Semestre/Labo_Micros/Labos_con_Luisja/Laboratorio_Microcontroladores/Laboratorio_4/src/libopencm3-examples/libopencm3/lib/libopencm3_stm32f4.a(rcc.o)
 .rodata.rcc_hsi_configs
                0x0000000000000000       0x54 /home/juan/Documents/VIII_Semestre/Labo_Micros/Labos_con_Luisja/Laboratorio_Microcontroladores/Laboratorio_4/src/libopencm3-examples/libopencm3/lib/libopencm3_stm32f4.a(rcc.o)
 .debug_macro   0x0000000000000000      0xa9c /home/juan/Documents/VIII_Semestre/Labo_Micros/Labos_con_Luisja/Laboratorio_Microcontroladores/Laboratorio_4/src/libopencm3-examples/libopencm3/lib/libopencm3_stm32f4.a(rcc.o)
 .debug_macro   0x0000000000000000       0x1c /home/juan/Documents/VIII_Semestre/Labo_Micros/Labos_con_Luisja/Laboratorio_Microcontroladores/Laboratorio_4/src/libopencm3-examples/libopencm3/lib/libopencm3_stm32f4.a(rcc.o)
 .debug_macro   0x0000000000000000      0x34e /home/juan/Documents/VIII_Semestre/Labo_Micros/Labos_con_Luisja/Laboratorio_Microcontroladores/Laboratorio_4/src/libopencm3-examples/libopencm3/lib/libopencm3_stm32f4.a(rcc.o)
 .debug_macro   0x0000000000000000       0x22 /home/juan/Documents/VIII_Semestre/Labo_Micros/Labos_con_Luisja/Laboratorio_Microcontroladores/Laboratorio_4/src/libopencm3-examples/libopencm3/lib/libopencm3_stm32f4.a(rcc.o)
 .debug_macro   0x0000000000000000       0xe8 /home/juan/Documents/VIII_Semestre/Labo_Micros/Labos_con_Luisja/Laboratorio_Microcontroladores/Laboratorio_4/src/libopencm3-examples/libopencm3/lib/libopencm3_stm32f4.a(rcc.o)
 .debug_macro   0x0000000000000000       0x76 /home/juan/Documents/VIII_Semestre/Labo_Micros/Labos_con_Luisja/Laboratorio_Microcontroladores/Laboratorio_4/src/libopencm3-examples/libopencm3/lib/libopencm3_stm32f4.a(rcc.o)
 .debug_macro   0x0000000000000000      0x280 /home/juan/Documents/VIII_Semestre/Labo_Micros/Labos_con_Luisja/Laboratorio_Microcontroladores/Laboratorio_4/src/libopencm3-examples/libopencm3/lib/libopencm3_stm32f4.a(rcc.o)
 .debug_macro   0x0000000000000000       0x8e /home/juan/Documents/VIII_Semestre/Labo_Micros/Labos_con_Luisja/Laboratorio_Microcontroladores/Laboratorio_4/src/libopencm3-examples/libopencm3/lib/libopencm3_stm32f4.a(rcc.o)
 .debug_macro   0x0000000000000000       0x28 /home/juan/Documents/VIII_Semestre/Labo_Micros/Labos_con_Luisja/Laboratorio_Microcontroladores/Laboratorio_4/src/libopencm3-examples/libopencm3/lib/libopencm3_stm32f4.a(rcc.o)
 .debug_macro   0x0000000000000000      0xcea /home/juan/Documents/VIII_Semestre/Labo_Micros/Labos_con_Luisja/Laboratorio_Microcontroladores/Laboratorio_4/src/libopencm3-examples/libopencm3/lib/libopencm3_stm32f4.a(rcc.o)
 .group         0x0000000000000000        0xc /home/juan/Documents/VIII_Semestre/Labo_Micros/Labos_con_Luisja/Laboratorio_Microcontroladores/Laboratorio_4/src/libopencm3-examples/libopencm3/lib/libopencm3_stm32f4.a(spi_common_all.o)
 .group         0x0000000000000000        0xc /home/juan/Documents/VIII_Semestre/Labo_Micros/Labos_con_Luisja/Laboratorio_Microcontroladores/Laboratorio_4/src/libopencm3-examples/libopencm3/lib/libopencm3_stm32f4.a(spi_common_all.o)
 .group         0x0000000000000000        0xc /home/juan/Documents/VIII_Semestre/Labo_Micros/Labos_con_Luisja/Laboratorio_Microcontroladores/Laboratorio_4/src/libopencm3-examples/libopencm3/lib/libopencm3_stm32f4.a(spi_common_all.o)
 .group         0x0000000000000000        0xc /home/juan/Documents/VIII_Semestre/Labo_Micros/Labos_con_Luisja/Laboratorio_Microcontroladores/Laboratorio_4/src/libopencm3-examples/libopencm3/lib/libopencm3_stm32f4.a(spi_common_all.o)
 .group         0x0000000000000000        0xc /home/juan/Documents/VIII_Semestre/Labo_Micros/Labos_con_Luisja/Laboratorio_Microcontroladores/Laboratorio_4/src/libopencm3-examples/libopencm3/lib/libopencm3_stm32f4.a(spi_common_all.o)
 .group         0x0000000000000000        0xc /home/juan/Documents/VIII_Semestre/Labo_Micros/Labos_con_Luisja/Laboratorio_Microcontroladores/Laboratorio_4/src/libopencm3-examples/libopencm3/lib/libopencm3_stm32f4.a(spi_common_all.o)
 .group         0x0000000000000000        0xc /home/juan/Documents/VIII_Semestre/Labo_Micros/Labos_con_Luisja/Laboratorio_Microcontroladores/Laboratorio_4/src/libopencm3-examples/libopencm3/lib/libopencm3_stm32f4.a(spi_common_all.o)
 .group         0x0000000000000000        0xc /home/juan/Documents/VIII_Semestre/Labo_Micros/Labos_con_Luisja/Laboratorio_Microcontroladores/Laboratorio_4/src/libopencm3-examples/libopencm3/lib/libopencm3_stm32f4.a(spi_common_all.o)
 .group         0x0000000000000000        0xc /home/juan/Documents/VIII_Semestre/Labo_Micros/Labos_con_Luisja/Laboratorio_Microcontroladores/Laboratorio_4/src/libopencm3-examples/libopencm3/lib/libopencm3_stm32f4.a(spi_common_all.o)
 .group         0x0000000000000000        0xc /home/juan/Documents/VIII_Semestre/Labo_Micros/Labos_con_Luisja/Laboratorio_Microcontroladores/Laboratorio_4/src/libopencm3-examples/libopencm3/lib/libopencm3_stm32f4.a(spi_common_all.o)
 .group         0x0000000000000000        0xc /home/juan/Documents/VIII_Semestre/Labo_Micros/Labos_con_Luisja/Laboratorio_Microcontroladores/Laboratorio_4/src/libopencm3-examples/libopencm3/lib/libopencm3_stm32f4.a(spi_common_all.o)
 .group         0x0000000000000000        0xc /home/juan/Documents/VIII_Semestre/Labo_Micros/Labos_con_Luisja/Laboratorio_Microcontroladores/Laboratorio_4/src/libopencm3-examples/libopencm3/lib/libopencm3_stm32f4.a(spi_common_all.o)
 .group         0x0000000000000000        0xc /home/juan/Documents/VIII_Semestre/Labo_Micros/Labos_con_Luisja/Laboratorio_Microcontroladores/Laboratorio_4/src/libopencm3-examples/libopencm3/lib/libopencm3_stm32f4.a(spi_common_all.o)
 .text          0x0000000000000000        0x0 /home/juan/Documents/VIII_Semestre/Labo_Micros/Labos_con_Luisja/Laboratorio_Microcontroladores/Laboratorio_4/src/libopencm3-examples/libopencm3/lib/libopencm3_stm32f4.a(spi_common_all.o)
 .data          0x0000000000000000        0x0 /home/juan/Documents/VIII_Semestre/Labo_Micros/Labos_con_Luisja/Laboratorio_Microcontroladores/Laboratorio_4/src/libopencm3-examples/libopencm3/lib/libopencm3_stm32f4.a(spi_common_all.o)
 .bss           0x0000000000000000        0x0 /home/juan/Documents/VIII_Semestre/Labo_Micros/Labos_con_Luisja/Laboratorio_Microcontroladores/Laboratorio_4/src/libopencm3-examples/libopencm3/lib/libopencm3_stm32f4.a(spi_common_all.o)
 .text.spi_reset
                0x0000000000000000       0x60 /home/juan/Documents/VIII_Semestre/Labo_Micros/Labos_con_Luisja/Laboratorio_Microcontroladores/Laboratorio_4/src/libopencm3-examples/libopencm3/lib/libopencm3_stm32f4.a(spi_common_all.o)
 .text.spi_disable
                0x0000000000000000        0xa /home/juan/Documents/VIII_Semestre/Labo_Micros/Labos_con_Luisja/Laboratorio_Microcontroladores/Laboratorio_4/src/libopencm3-examples/libopencm3/lib/libopencm3_stm32f4.a(spi_common_all.o)
 .text.spi_clean_disable
                0x0000000000000000       0x26 /home/juan/Documents/VIII_Semestre/Labo_Micros/Labos_con_Luisja/Laboratorio_Microcontroladores/Laboratorio_4/src/libopencm3-examples/libopencm3/lib/libopencm3_stm32f4.a(spi_common_all.o)
 .text.spi_write
                0x0000000000000000        0x4 /home/juan/Documents/VIII_Semestre/Labo_Micros/Labos_con_Luisja/Laboratorio_Microcontroladores/Laboratorio_4/src/libopencm3-examples/libopencm3/lib/libopencm3_stm32f4.a(spi_common_all.o)
 .text.spi_send
                0x0000000000000000        0xa /home/juan/Documents/VIII_Semestre/Labo_Micros/Labos_con_Luisja/Laboratorio_Microcontroladores/Laboratorio_4/src/libopencm3-examples/libopencm3/lib/libopencm3_stm32f4.a(spi_common_all.o)
 .text.spi_read
                0x0000000000000000        0xc /home/juan/Documents/VIII_Semestre/Labo_Micros/Labos_con_Luisja/Laboratorio_Microcontroladores/Laboratorio_4/src/libopencm3-examples/libopencm3/lib/libopencm3_stm32f4.a(spi_common_all.o)
 .text.spi_set_bidirectional_mode
                0x0000000000000000        0xa /home/juan/Documents/VIII_Semestre/Labo_Micros/Labos_con_Luisja/Laboratorio_Microcontroladores/Laboratorio_4/src/libopencm3-examples/libopencm3/lib/libopencm3_stm32f4.a(spi_common_all.o)
 .text.spi_set_unidirectional_mode
                0x0000000000000000        0xa /home/juan/Documents/VIII_Semestre/Labo_Micros/Labos_con_Luisja/Laboratorio_Microcontroladores/Laboratorio_4/src/libopencm3-examples/libopencm3/lib/libopencm3_stm32f4.a(spi_common_all.o)
 .text.spi_set_bidirectional_receive_only_mode
                0x0000000000000000       0x12 /home/juan/Documents/VIII_Semestre/Labo_Micros/Labos_con_Luisja/Laboratorio_Microcontroladores/Laboratorio_4/src/libopencm3-examples/libopencm3/lib/libopencm3_stm32f4.a(spi_common_all.o)
 .text.spi_set_bidirectional_transmit_only_mode
                0x0000000000000000       0x12 /home/juan/Documents/VIII_Semestre/Labo_Micros/Labos_con_Luisja/Laboratorio_Microcontroladores/Laboratorio_4/src/libopencm3-examples/libopencm3/lib/libopencm3_stm32f4.a(spi_common_all.o)
 .text.spi_enable_crc
                0x0000000000000000        0xa /home/juan/Documents/VIII_Semestre/Labo_Micros/Labos_con_Luisja/Laboratorio_Microcontroladores/Laboratorio_4/src/libopencm3-examples/libopencm3/lib/libopencm3_stm32f4.a(spi_common_all.o)
 .text.spi_disable_crc
                0x0000000000000000        0xa /home/juan/Documents/VIII_Semestre/Labo_Micros/Labos_con_Luisja/Laboratorio_Microcontroladores/Laboratorio_4/src/libopencm3-examples/libopencm3/lib/libopencm3_stm32f4.a(spi_common_all.o)
 .text.spi_set_next_tx_from_buffer
                0x0000000000000000        0xa /home/juan/Documents/VIII_Semestre/Labo_Micros/Labos_con_Luisja/Laboratorio_Microcontroladores/Laboratorio_4/src/libopencm3-examples/libopencm3/lib/libopencm3_stm32f4.a(spi_common_all.o)
 .text.spi_set_next_tx_from_crc
                0x0000000000000000        0xa /home/juan/Documents/VIII_Semestre/Labo_Micros/Labos_con_Luisja/Laboratorio_Microcontroladores/Laboratorio_4/src/libopencm3-examples/libopencm3/lib/libopencm3_stm32f4.a(spi_common_all.o)
 .text.spi_set_full_duplex_mode
                0x0000000000000000        0xa /home/juan/Documents/VIII_Semestre/Labo_Micros/Labos_con_Luisja/Laboratorio_Microcontroladores/Laboratorio_4/src/libopencm3-examples/libopencm3/lib/libopencm3_stm32f4.a(spi_common_all.o)
 .text.spi_set_receive_only_mode
                0x0000000000000000        0xa /home/juan/Documents/VIII_Semestre/Labo_Micros/Labos_con_Luisja/Laboratorio_Microcontroladores/Laboratorio_4/src/libopencm3-examples/libopencm3/lib/libopencm3_stm32f4.a(spi_common_all.o)
 .text.spi_disable_software_slave_management
                0x0000000000000000        0xa /home/juan/Documents/VIII_Semestre/Labo_Micros/Labos_con_Luisja/Laboratorio_Microcontroladores/Laboratorio_4/src/libopencm3-examples/libopencm3/lib/libopencm3_stm32f4.a(spi_common_all.o)
 .text.spi_enable_software_slave_management
                0x0000000000000000       0x12 /home/juan/Documents/VIII_Semestre/Labo_Micros/Labos_con_Luisja/Laboratorio_Microcontroladores/Laboratorio_4/src/libopencm3-examples/libopencm3/lib/libopencm3_stm32f4.a(spi_common_all.o)
 .text.spi_set_nss_high
                0x0000000000000000        0xa /home/juan/Documents/VIII_Semestre/Labo_Micros/Labos_con_Luisja/Laboratorio_Microcontroladores/Laboratorio_4/src/libopencm3-examples/libopencm3/lib/libopencm3_stm32f4.a(spi_common_all.o)
 .text.spi_set_nss_low
                0x0000000000000000        0xa /home/juan/Documents/VIII_Semestre/Labo_Micros/Labos_con_Luisja/Laboratorio_Microcontroladores/Laboratorio_4/src/libopencm3-examples/libopencm3/lib/libopencm3_stm32f4.a(spi_common_all.o)
 .text.spi_send_lsb_first
                0x0000000000000000        0xa /home/juan/Documents/VIII_Semestre/Labo_Micros/Labos_con_Luisja/Laboratorio_Microcontroladores/Laboratorio_4/src/libopencm3-examples/libopencm3/lib/libopencm3_stm32f4.a(spi_common_all.o)
 .text.spi_send_msb_first
                0x0000000000000000        0xa /home/juan/Documents/VIII_Semestre/Labo_Micros/Labos_con_Luisja/Laboratorio_Microcontroladores/Laboratorio_4/src/libopencm3-examples/libopencm3/lib/libopencm3_stm32f4.a(spi_common_all.o)
 .text.spi_set_baudrate_prescaler
                0x0000000000000000       0x16 /home/juan/Documents/VIII_Semestre/Labo_Micros/Labos_con_Luisja/Laboratorio_Microcontroladores/Laboratorio_4/src/libopencm3-examples/libopencm3/lib/libopencm3_stm32f4.a(spi_common_all.o)
 .text.spi_set_master_mode
                0x0000000000000000        0xa /home/juan/Documents/VIII_Semestre/Labo_Micros/Labos_con_Luisja/Laboratorio_Microcontroladores/Laboratorio_4/src/libopencm3-examples/libopencm3/lib/libopencm3_stm32f4.a(spi_common_all.o)
 .text.spi_set_slave_mode
                0x0000000000000000        0xa /home/juan/Documents/VIII_Semestre/Labo_Micros/Labos_con_Luisja/Laboratorio_Microcontroladores/Laboratorio_4/src/libopencm3-examples/libopencm3/lib/libopencm3_stm32f4.a(spi_common_all.o)
 .text.spi_set_clock_polarity_1
                0x0000000000000000        0xa /home/juan/Documents/VIII_Semestre/Labo_Micros/Labos_con_Luisja/Laboratorio_Microcontroladores/Laboratorio_4/src/libopencm3-examples/libopencm3/lib/libopencm3_stm32f4.a(spi_common_all.o)
 .text.spi_set_clock_polarity_0
                0x0000000000000000        0xa /home/juan/Documents/VIII_Semestre/Labo_Micros/Labos_con_Luisja/Laboratorio_Microcontroladores/Laboratorio_4/src/libopencm3-examples/libopencm3/lib/libopencm3_stm32f4.a(spi_common_all.o)
 .text.spi_set_clock_phase_1
                0x0000000000000000        0xa /home/juan/Documents/VIII_Semestre/Labo_Micros/Labos_con_Luisja/Laboratorio_Microcontroladores/Laboratorio_4/src/libopencm3-examples/libopencm3/lib/libopencm3_stm32f4.a(spi_common_all.o)
 .text.spi_set_clock_phase_0
                0x0000000000000000        0xa /home/juan/Documents/VIII_Semestre/Labo_Micros/Labos_con_Luisja/Laboratorio_Microcontroladores/Laboratorio_4/src/libopencm3-examples/libopencm3/lib/libopencm3_stm32f4.a(spi_common_all.o)
 .text.spi_enable_tx_buffer_empty_interrupt
                0x0000000000000000        0xa /home/juan/Documents/VIII_Semestre/Labo_Micros/Labos_con_Luisja/Laboratorio_Microcontroladores/Laboratorio_4/src/libopencm3-examples/libopencm3/lib/libopencm3_stm32f4.a(spi_common_all.o)
 .text.spi_disable_tx_buffer_empty_interrupt
                0x0000000000000000        0xa /home/juan/Documents/VIII_Semestre/Labo_Micros/Labos_con_Luisja/Laboratorio_Microcontroladores/Laboratorio_4/src/libopencm3-examples/libopencm3/lib/libopencm3_stm32f4.a(spi_common_all.o)
 .text.spi_enable_rx_buffer_not_empty_interrupt
                0x0000000000000000        0xa /home/juan/Documents/VIII_Semestre/Labo_Micros/Labos_con_Luisja/Laboratorio_Microcontroladores/Laboratorio_4/src/libopencm3-examples/libopencm3/lib/libopencm3_stm32f4.a(spi_common_all.o)
 .text.spi_disable_rx_buffer_not_empty_interrupt
                0x0000000000000000        0xa /home/juan/Documents/VIII_Semestre/Labo_Micros/Labos_con_Luisja/Laboratorio_Microcontroladores/Laboratorio_4/src/libopencm3-examples/libopencm3/lib/libopencm3_stm32f4.a(spi_common_all.o)
 .text.spi_enable_error_interrupt
                0x0000000000000000        0xa /home/juan/Documents/VIII_Semestre/Labo_Micros/Labos_con_Luisja/Laboratorio_Microcontroladores/Laboratorio_4/src/libopencm3-examples/libopencm3/lib/libopencm3_stm32f4.a(spi_common_all.o)
 .text.spi_disable_error_interrupt
                0x0000000000000000        0xa /home/juan/Documents/VIII_Semestre/Labo_Micros/Labos_con_Luisja/Laboratorio_Microcontroladores/Laboratorio_4/src/libopencm3-examples/libopencm3/lib/libopencm3_stm32f4.a(spi_common_all.o)
 .text.spi_disable_ss_output
                0x0000000000000000        0xa /home/juan/Documents/VIII_Semestre/Labo_Micros/Labos_con_Luisja/Laboratorio_Microcontroladores/Laboratorio_4/src/libopencm3-examples/libopencm3/lib/libopencm3_stm32f4.a(spi_common_all.o)
 .text.spi_enable_tx_dma
                0x0000000000000000        0xa /home/juan/Documents/VIII_Semestre/Labo_Micros/Labos_con_Luisja/Laboratorio_Microcontroladores/Laboratorio_4/src/libopencm3-examples/libopencm3/lib/libopencm3_stm32f4.a(spi_common_all.o)
 .text.spi_disable_tx_dma
                0x0000000000000000        0xa /home/juan/Documents/VIII_Semestre/Labo_Micros/Labos_con_Luisja/Laboratorio_Microcontroladores/Laboratorio_4/src/libopencm3-examples/libopencm3/lib/libopencm3_stm32f4.a(spi_common_all.o)
 .text.spi_enable_rx_dma
                0x0000000000000000        0xa /home/juan/Documents/VIII_Semestre/Labo_Micros/Labos_con_Luisja/Laboratorio_Microcontroladores/Laboratorio_4/src/libopencm3-examples/libopencm3/lib/libopencm3_stm32f4.a(spi_common_all.o)
 .text.spi_disable_rx_dma
                0x0000000000000000        0xa /home/juan/Documents/VIII_Semestre/Labo_Micros/Labos_con_Luisja/Laboratorio_Microcontroladores/Laboratorio_4/src/libopencm3-examples/libopencm3/lib/libopencm3_stm32f4.a(spi_common_all.o)
 .text.spi_set_standard_mode
                0x0000000000000000       0x10 /home/juan/Documents/VIII_Semestre/Labo_Micros/Labos_con_Luisja/Laboratorio_Microcontroladores/Laboratorio_4/src/libopencm3-examples/libopencm3/lib/libopencm3_stm32f4.a(spi_common_all.o)
 .debug_macro   0x0000000000000000      0xa9c /home/juan/Documents/VIII_Semestre/Labo_Micros/Labos_con_Luisja/Laboratorio_Microcontroladores/Laboratorio_4/src/libopencm3-examples/libopencm3/lib/libopencm3_stm32f4.a(spi_common_all.o)
 .debug_macro   0x0000000000000000       0x1c /home/juan/Documents/VIII_Semestre/Labo_Micros/Labos_con_Luisja/Laboratorio_Microcontroladores/Laboratorio_4/src/libopencm3-examples/libopencm3/lib/libopencm3_stm32f4.a(spi_common_all.o)
 .debug_macro   0x0000000000000000      0x34e /home/juan/Documents/VIII_Semestre/Labo_Micros/Labos_con_Luisja/Laboratorio_Microcontroladores/Laboratorio_4/src/libopencm3-examples/libopencm3/lib/libopencm3_stm32f4.a(spi_common_all.o)
 .debug_macro   0x0000000000000000       0x22 /home/juan/Documents/VIII_Semestre/Labo_Micros/Labos_con_Luisja/Laboratorio_Microcontroladores/Laboratorio_4/src/libopencm3-examples/libopencm3/lib/libopencm3_stm32f4.a(spi_common_all.o)
 .debug_macro   0x0000000000000000       0xe8 /home/juan/Documents/VIII_Semestre/Labo_Micros/Labos_con_Luisja/Laboratorio_Microcontroladores/Laboratorio_4/src/libopencm3-examples/libopencm3/lib/libopencm3_stm32f4.a(spi_common_all.o)
 .debug_macro   0x0000000000000000       0x76 /home/juan/Documents/VIII_Semestre/Labo_Micros/Labos_con_Luisja/Laboratorio_Microcontroladores/Laboratorio_4/src/libopencm3-examples/libopencm3/lib/libopencm3_stm32f4.a(spi_common_all.o)
 .debug_macro   0x0000000000000000      0x280 /home/juan/Documents/VIII_Semestre/Labo_Micros/Labos_con_Luisja/Laboratorio_Microcontroladores/Laboratorio_4/src/libopencm3-examples/libopencm3/lib/libopencm3_stm32f4.a(spi_common_all.o)
 .debug_macro   0x0000000000000000      0x2eb /home/juan/Documents/VIII_Semestre/Labo_Micros/Labos_con_Luisja/Laboratorio_Microcontroladores/Laboratorio_4/src/libopencm3-examples/libopencm3/lib/libopencm3_stm32f4.a(spi_common_all.o)
 .debug_macro   0x0000000000000000       0x16 /home/juan/Documents/VIII_Semestre/Labo_Micros/Labos_con_Luisja/Laboratorio_Microcontroladores/Laboratorio_4/src/libopencm3-examples/libopencm3/lib/libopencm3_stm32f4.a(spi_common_all.o)
 .debug_macro   0x0000000000000000       0x22 /home/juan/Documents/VIII_Semestre/Labo_Micros/Labos_con_Luisja/Laboratorio_Microcontroladores/Laboratorio_4/src/libopencm3-examples/libopencm3/lib/libopencm3_stm32f4.a(spi_common_all.o)
 .debug_macro   0x0000000000000000       0x8e /home/juan/Documents/VIII_Semestre/Labo_Micros/Labos_con_Luisja/Laboratorio_Microcontroladores/Laboratorio_4/src/libopencm3-examples/libopencm3/lib/libopencm3_stm32f4.a(spi_common_all.o)
 .debug_macro   0x0000000000000000       0x28 /home/juan/Documents/VIII_Semestre/Labo_Micros/Labos_con_Luisja/Laboratorio_Microcontroladores/Laboratorio_4/src/libopencm3-examples/libopencm3/lib/libopencm3_stm32f4.a(spi_common_all.o)
 .debug_macro   0x0000000000000000      0xcea /home/juan/Documents/VIII_Semestre/Labo_Micros/Labos_con_Luisja/Laboratorio_Microcontroladores/Laboratorio_4/src/libopencm3-examples/libopencm3/lib/libopencm3_stm32f4.a(spi_common_all.o)
 .group         0x0000000000000000        0xc /home/juan/Documents/VIII_Semestre/Labo_Micros/Labos_con_Luisja/Laboratorio_Microcontroladores/Laboratorio_4/src/libopencm3-examples/libopencm3/lib/libopencm3_stm32f4.a(spi_common_v1.o)
 .group         0x0000000000000000        0xc /home/juan/Documents/VIII_Semestre/Labo_Micros/Labos_con_Luisja/Laboratorio_Microcontroladores/Laboratorio_4/src/libopencm3-examples/libopencm3/lib/libopencm3_stm32f4.a(spi_common_v1.o)
 .group         0x0000000000000000        0xc /home/juan/Documents/VIII_Semestre/Labo_Micros/Labos_con_Luisja/Laboratorio_Microcontroladores/Laboratorio_4/src/libopencm3-examples/libopencm3/lib/libopencm3_stm32f4.a(spi_common_v1.o)
 .group         0x0000000000000000        0xc /home/juan/Documents/VIII_Semestre/Labo_Micros/Labos_con_Luisja/Laboratorio_Microcontroladores/Laboratorio_4/src/libopencm3-examples/libopencm3/lib/libopencm3_stm32f4.a(spi_common_v1.o)
 .group         0x0000000000000000        0xc /home/juan/Documents/VIII_Semestre/Labo_Micros/Labos_con_Luisja/Laboratorio_Microcontroladores/Laboratorio_4/src/libopencm3-examples/libopencm3/lib/libopencm3_stm32f4.a(spi_common_v1.o)
 .group         0x0000000000000000        0xc /home/juan/Documents/VIII_Semestre/Labo_Micros/Labos_con_Luisja/Laboratorio_Microcontroladores/Laboratorio_4/src/libopencm3-examples/libopencm3/lib/libopencm3_stm32f4.a(spi_common_v1.o)
 .group         0x0000000000000000        0xc /home/juan/Documents/VIII_Semestre/Labo_Micros/Labos_con_Luisja/Laboratorio_Microcontroladores/Laboratorio_4/src/libopencm3-examples/libopencm3/lib/libopencm3_stm32f4.a(spi_common_v1.o)
 .group         0x0000000000000000        0xc /home/juan/Documents/VIII_Semestre/Labo_Micros/Labos_con_Luisja/Laboratorio_Microcontroladores/Laboratorio_4/src/libopencm3-examples/libopencm3/lib/libopencm3_stm32f4.a(spi_common_v1.o)
 .group         0x0000000000000000        0xc /home/juan/Documents/VIII_Semestre/Labo_Micros/Labos_con_Luisja/Laboratorio_Microcontroladores/Laboratorio_4/src/libopencm3-examples/libopencm3/lib/libopencm3_stm32f4.a(spi_common_v1.o)
 .group         0x0000000000000000        0xc /home/juan/Documents/VIII_Semestre/Labo_Micros/Labos_con_Luisja/Laboratorio_Microcontroladores/Laboratorio_4/src/libopencm3-examples/libopencm3/lib/libopencm3_stm32f4.a(spi_common_v1.o)
 .group         0x0000000000000000        0xc /home/juan/Documents/VIII_Semestre/Labo_Micros/Labos_con_Luisja/Laboratorio_Microcontroladores/Laboratorio_4/src/libopencm3-examples/libopencm3/lib/libopencm3_stm32f4.a(spi_common_v1.o)
 .group         0x0000000000000000        0xc /home/juan/Documents/VIII_Semestre/Labo_Micros/Labos_con_Luisja/Laboratorio_Microcontroladores/Laboratorio_4/src/libopencm3-examples/libopencm3/lib/libopencm3_stm32f4.a(spi_common_v1.o)
 .group         0x0000000000000000        0xc /home/juan/Documents/VIII_Semestre/Labo_Micros/Labos_con_Luisja/Laboratorio_Microcontroladores/Laboratorio_4/src/libopencm3-examples/libopencm3/lib/libopencm3_stm32f4.a(spi_common_v1.o)
 .text          0x0000000000000000        0x0 /home/juan/Documents/VIII_Semestre/Labo_Micros/Labos_con_Luisja/Laboratorio_Microcontroladores/Laboratorio_4/src/libopencm3-examples/libopencm3/lib/libopencm3_stm32f4.a(spi_common_v1.o)
 .data          0x0000000000000000        0x0 /home/juan/Documents/VIII_Semestre/Labo_Micros/Labos_con_Luisja/Laboratorio_Microcontroladores/Laboratorio_4/src/libopencm3-examples/libopencm3/lib/libopencm3_stm32f4.a(spi_common_v1.o)
 .bss           0x0000000000000000        0x0 /home/juan/Documents/VIII_Semestre/Labo_Micros/Labos_con_Luisja/Laboratorio_Microcontroladores/Laboratorio_4/src/libopencm3-examples/libopencm3/lib/libopencm3_stm32f4.a(spi_common_v1.o)
 .text.spi_set_dff_8bit
                0x0000000000000000        0xa /home/juan/Documents/VIII_Semestre/Labo_Micros/Labos_con_Luisja/Laboratorio_Microcontroladores/Laboratorio_4/src/libopencm3-examples/libopencm3/lib/libopencm3_stm32f4.a(spi_common_v1.o)
 .text.spi_set_dff_16bit
                0x0000000000000000        0xa /home/juan/Documents/VIII_Semestre/Labo_Micros/Labos_con_Luisja/Laboratorio_Microcontroladores/Laboratorio_4/src/libopencm3-examples/libopencm3/lib/libopencm3_stm32f4.a(spi_common_v1.o)
 .debug_macro   0x0000000000000000      0xa9c /home/juan/Documents/VIII_Semestre/Labo_Micros/Labos_con_Luisja/Laboratorio_Microcontroladores/Laboratorio_4/src/libopencm3-examples/libopencm3/lib/libopencm3_stm32f4.a(spi_common_v1.o)
 .debug_macro   0x0000000000000000       0x1c /home/juan/Documents/VIII_Semestre/Labo_Micros/Labos_con_Luisja/Laboratorio_Microcontroladores/Laboratorio_4/src/libopencm3-examples/libopencm3/lib/libopencm3_stm32f4.a(spi_common_v1.o)
 .debug_macro   0x0000000000000000      0x34e /home/juan/Documents/VIII_Semestre/Labo_Micros/Labos_con_Luisja/Laboratorio_Microcontroladores/Laboratorio_4/src/libopencm3-examples/libopencm3/lib/libopencm3_stm32f4.a(spi_common_v1.o)
 .debug_macro   0x0000000000000000       0x22 /home/juan/Documents/VIII_Semestre/Labo_Micros/Labos_con_Luisja/Laboratorio_Microcontroladores/Laboratorio_4/src/libopencm3-examples/libopencm3/lib/libopencm3_stm32f4.a(spi_common_v1.o)
 .debug_macro   0x0000000000000000       0xe8 /home/juan/Documents/VIII_Semestre/Labo_Micros/Labos_con_Luisja/Laboratorio_Microcontroladores/Laboratorio_4/src/libopencm3-examples/libopencm3/lib/libopencm3_stm32f4.a(spi_common_v1.o)
 .debug_macro   0x0000000000000000       0x76 /home/juan/Documents/VIII_Semestre/Labo_Micros/Labos_con_Luisja/Laboratorio_Microcontroladores/Laboratorio_4/src/libopencm3-examples/libopencm3/lib/libopencm3_stm32f4.a(spi_common_v1.o)
 .debug_macro   0x0000000000000000      0x280 /home/juan/Documents/VIII_Semestre/Labo_Micros/Labos_con_Luisja/Laboratorio_Microcontroladores/Laboratorio_4/src/libopencm3-examples/libopencm3/lib/libopencm3_stm32f4.a(spi_common_v1.o)
 .debug_macro   0x0000000000000000      0x2eb /home/juan/Documents/VIII_Semestre/Labo_Micros/Labos_con_Luisja/Laboratorio_Microcontroladores/Laboratorio_4/src/libopencm3-examples/libopencm3/lib/libopencm3_stm32f4.a(spi_common_v1.o)
 .debug_macro   0x0000000000000000       0x16 /home/juan/Documents/VIII_Semestre/Labo_Micros/Labos_con_Luisja/Laboratorio_Microcontroladores/Laboratorio_4/src/libopencm3-examples/libopencm3/lib/libopencm3_stm32f4.a(spi_common_v1.o)
 .debug_macro   0x0000000000000000       0x22 /home/juan/Documents/VIII_Semestre/Labo_Micros/Labos_con_Luisja/Laboratorio_Microcontroladores/Laboratorio_4/src/libopencm3-examples/libopencm3/lib/libopencm3_stm32f4.a(spi_common_v1.o)
 .debug_macro   0x0000000000000000       0x8e /home/juan/Documents/VIII_Semestre/Labo_Micros/Labos_con_Luisja/Laboratorio_Microcontroladores/Laboratorio_4/src/libopencm3-examples/libopencm3/lib/libopencm3_stm32f4.a(spi_common_v1.o)
 .debug_macro   0x0000000000000000       0x28 /home/juan/Documents/VIII_Semestre/Labo_Micros/Labos_con_Luisja/Laboratorio_Microcontroladores/Laboratorio_4/src/libopencm3-examples/libopencm3/lib/libopencm3_stm32f4.a(spi_common_v1.o)
 .debug_macro   0x0000000000000000      0xcea /home/juan/Documents/VIII_Semestre/Labo_Micros/Labos_con_Luisja/Laboratorio_Microcontroladores/Laboratorio_4/src/libopencm3-examples/libopencm3/lib/libopencm3_stm32f4.a(spi_common_v1.o)
 .group         0x0000000000000000        0xc /home/juan/Documents/VIII_Semestre/Labo_Micros/Labos_con_Luisja/Laboratorio_Microcontroladores/Laboratorio_4/src/libopencm3-examples/libopencm3/lib/libopencm3_stm32f4.a(usart_common_all.o)
 .group         0x0000000000000000        0xc /home/juan/Documents/VIII_Semestre/Labo_Micros/Labos_con_Luisja/Laboratorio_Microcontroladores/Laboratorio_4/src/libopencm3-examples/libopencm3/lib/libopencm3_stm32f4.a(usart_common_all.o)
 .group         0x0000000000000000        0xc /home/juan/Documents/VIII_Semestre/Labo_Micros/Labos_con_Luisja/Laboratorio_Microcontroladores/Laboratorio_4/src/libopencm3-examples/libopencm3/lib/libopencm3_stm32f4.a(usart_common_all.o)
 .group         0x0000000000000000        0xc /home/juan/Documents/VIII_Semestre/Labo_Micros/Labos_con_Luisja/Laboratorio_Microcontroladores/Laboratorio_4/src/libopencm3-examples/libopencm3/lib/libopencm3_stm32f4.a(usart_common_all.o)
 .group         0x0000000000000000        0xc /home/juan/Documents/VIII_Semestre/Labo_Micros/Labos_con_Luisja/Laboratorio_Microcontroladores/Laboratorio_4/src/libopencm3-examples/libopencm3/lib/libopencm3_stm32f4.a(usart_common_all.o)
 .group         0x0000000000000000        0xc /home/juan/Documents/VIII_Semestre/Labo_Micros/Labos_con_Luisja/Laboratorio_Microcontroladores/Laboratorio_4/src/libopencm3-examples/libopencm3/lib/libopencm3_stm32f4.a(usart_common_all.o)
 .group         0x0000000000000000        0xc /home/juan/Documents/VIII_Semestre/Labo_Micros/Labos_con_Luisja/Laboratorio_Microcontroladores/Laboratorio_4/src/libopencm3-examples/libopencm3/lib/libopencm3_stm32f4.a(usart_common_all.o)
 .group         0x0000000000000000        0xc /home/juan/Documents/VIII_Semestre/Labo_Micros/Labos_con_Luisja/Laboratorio_Microcontroladores/Laboratorio_4/src/libopencm3-examples/libopencm3/lib/libopencm3_stm32f4.a(usart_common_all.o)
 .group         0x0000000000000000        0xc /home/juan/Documents/VIII_Semestre/Labo_Micros/Labos_con_Luisja/Laboratorio_Microcontroladores/Laboratorio_4/src/libopencm3-examples/libopencm3/lib/libopencm3_stm32f4.a(usart_common_all.o)
 .group         0x0000000000000000        0xc /home/juan/Documents/VIII_Semestre/Labo_Micros/Labos_con_Luisja/Laboratorio_Microcontroladores/Laboratorio_4/src/libopencm3-examples/libopencm3/lib/libopencm3_stm32f4.a(usart_common_all.o)
 .group         0x0000000000000000        0xc /home/juan/Documents/VIII_Semestre/Labo_Micros/Labos_con_Luisja/Laboratorio_Microcontroladores/Laboratorio_4/src/libopencm3-examples/libopencm3/lib/libopencm3_stm32f4.a(usart_common_all.o)
 .group         0x0000000000000000        0xc /home/juan/Documents/VIII_Semestre/Labo_Micros/Labos_con_Luisja/Laboratorio_Microcontroladores/Laboratorio_4/src/libopencm3-examples/libopencm3/lib/libopencm3_stm32f4.a(usart_common_all.o)
 .group         0x0000000000000000        0xc /home/juan/Documents/VIII_Semestre/Labo_Micros/Labos_con_Luisja/Laboratorio_Microcontroladores/Laboratorio_4/src/libopencm3-examples/libopencm3/lib/libopencm3_stm32f4.a(usart_common_all.o)
 .text          0x0000000000000000        0x0 /home/juan/Documents/VIII_Semestre/Labo_Micros/Labos_con_Luisja/Laboratorio_Microcontroladores/Laboratorio_4/src/libopencm3-examples/libopencm3/lib/libopencm3_stm32f4.a(usart_common_all.o)
 .data          0x0000000000000000        0x0 /home/juan/Documents/VIII_Semestre/Labo_Micros/Labos_con_Luisja/Laboratorio_Microcontroladores/Laboratorio_4/src/libopencm3-examples/libopencm3/lib/libopencm3_stm32f4.a(usart_common_all.o)
 .bss           0x0000000000000000        0x0 /home/juan/Documents/VIII_Semestre/Labo_Micros/Labos_con_Luisja/Laboratorio_Microcontroladores/Laboratorio_4/src/libopencm3-examples/libopencm3/lib/libopencm3_stm32f4.a(usart_common_all.o)
 .text.usart_disable
                0x0000000000000000        0xa /home/juan/Documents/VIII_Semestre/Labo_Micros/Labos_con_Luisja/Laboratorio_Microcontroladores/Laboratorio_4/src/libopencm3-examples/libopencm3/lib/libopencm3_stm32f4.a(usart_common_all.o)
 .text.usart_send_blocking
                0x0000000000000000       0x18 /home/juan/Documents/VIII_Semestre/Labo_Micros/Labos_con_Luisja/Laboratorio_Microcontroladores/Laboratorio_4/src/libopencm3-examples/libopencm3/lib/libopencm3_stm32f4.a(usart_common_all.o)
 .text.usart_recv_blocking
                0x0000000000000000       0x12 /home/juan/Documents/VIII_Semestre/Labo_Micros/Labos_con_Luisja/Laboratorio_Microcontroladores/Laboratorio_4/src/libopencm3-examples/libopencm3/lib/libopencm3_stm32f4.a(usart_common_all.o)
 .text.usart_enable_rx_dma
                0x0000000000000000        0xa /home/juan/Documents/VIII_Semestre/Labo_Micros/Labos_con_Luisja/Laboratorio_Microcontroladores/Laboratorio_4/src/libopencm3-examples/libopencm3/lib/libopencm3_stm32f4.a(usart_common_all.o)
 .text.usart_disable_rx_dma
                0x0000000000000000        0xa /home/juan/Documents/VIII_Semestre/Labo_Micros/Labos_con_Luisja/Laboratorio_Microcontroladores/Laboratorio_4/src/libopencm3-examples/libopencm3/lib/libopencm3_stm32f4.a(usart_common_all.o)
 .text.usart_enable_tx_dma
                0x0000000000000000        0xa /home/juan/Documents/VIII_Semestre/Labo_Micros/Labos_con_Luisja/Laboratorio_Microcontroladores/Laboratorio_4/src/libopencm3-examples/libopencm3/lib/libopencm3_stm32f4.a(usart_common_all.o)
 .text.usart_disable_tx_dma
                0x0000000000000000        0xa /home/juan/Documents/VIII_Semestre/Labo_Micros/Labos_con_Luisja/Laboratorio_Microcontroladores/Laboratorio_4/src/libopencm3-examples/libopencm3/lib/libopencm3_stm32f4.a(usart_common_all.o)
 .text.usart_enable_rx_interrupt
                0x0000000000000000        0xa /home/juan/Documents/VIII_Semestre/Labo_Micros/Labos_con_Luisja/Laboratorio_Microcontroladores/Laboratorio_4/src/libopencm3-examples/libopencm3/lib/libopencm3_stm32f4.a(usart_common_all.o)
 .text.usart_disable_rx_interrupt
                0x0000000000000000        0xa /home/juan/Documents/VIII_Semestre/Labo_Micros/Labos_con_Luisja/Laboratorio_Microcontroladores/Laboratorio_4/src/libopencm3-examples/libopencm3/lib/libopencm3_stm32f4.a(usart_common_all.o)
 .text.usart_enable_tx_interrupt
                0x0000000000000000        0xa /home/juan/Documents/VIII_Semestre/Labo_Micros/Labos_con_Luisja/Laboratorio_Microcontroladores/Laboratorio_4/src/libopencm3-examples/libopencm3/lib/libopencm3_stm32f4.a(usart_common_all.o)
 .text.usart_disable_tx_interrupt
                0x0000000000000000        0xa /home/juan/Documents/VIII_Semestre/Labo_Micros/Labos_con_Luisja/Laboratorio_Microcontroladores/Laboratorio_4/src/libopencm3-examples/libopencm3/lib/libopencm3_stm32f4.a(usart_common_all.o)
 .text.usart_enable_tx_complete_interrupt
                0x0000000000000000        0xa /home/juan/Documents/VIII_Semestre/Labo_Micros/Labos_con_Luisja/Laboratorio_Microcontroladores/Laboratorio_4/src/libopencm3-examples/libopencm3/lib/libopencm3_stm32f4.a(usart_common_all.o)
 .text.usart_disable_tx_complete_interrupt
                0x0000000000000000        0xa /home/juan/Documents/VIII_Semestre/Labo_Micros/Labos_con_Luisja/Laboratorio_Microcontroladores/Laboratorio_4/src/libopencm3-examples/libopencm3/lib/libopencm3_stm32f4.a(usart_common_all.o)
 .text.usart_enable_idle_interrupt
                0x0000000000000000        0xa /home/juan/Documents/VIII_Semestre/Labo_Micros/Labos_con_Luisja/Laboratorio_Microcontroladores/Laboratorio_4/src/libopencm3-examples/libopencm3/lib/libopencm3_stm32f4.a(usart_common_all.o)
 .text.usart_disable_idle_interrupt
                0x0000000000000000        0xa /home/juan/Documents/VIII_Semestre/Labo_Micros/Labos_con_Luisja/Laboratorio_Microcontroladores/Laboratorio_4/src/libopencm3-examples/libopencm3/lib/libopencm3_stm32f4.a(usart_common_all.o)
 .text.usart_enable_error_interrupt
                0x0000000000000000        0xa /home/juan/Documents/VIII_Semestre/Labo_Micros/Labos_con_Luisja/Laboratorio_Microcontroladores/Laboratorio_4/src/libopencm3-examples/libopencm3/lib/libopencm3_stm32f4.a(usart_common_all.o)
 .text.usart_disable_error_interrupt
                0x0000000000000000        0xa /home/juan/Documents/VIII_Semestre/Labo_Micros/Labos_con_Luisja/Laboratorio_Microcontroladores/Laboratorio_4/src/libopencm3-examples/libopencm3/lib/libopencm3_stm32f4.a(usart_common_all.o)
 .debug_macro   0x0000000000000000      0xa9c /home/juan/Documents/VIII_Semestre/Labo_Micros/Labos_con_Luisja/Laboratorio_Microcontroladores/Laboratorio_4/src/libopencm3-examples/libopencm3/lib/libopencm3_stm32f4.a(usart_common_all.o)
 .debug_macro   0x0000000000000000       0x1c /home/juan/Documents/VIII_Semestre/Labo_Micros/Labos_con_Luisja/Laboratorio_Microcontroladores/Laboratorio_4/src/libopencm3-examples/libopencm3/lib/libopencm3_stm32f4.a(usart_common_all.o)
 .debug_macro   0x0000000000000000      0x34e /home/juan/Documents/VIII_Semestre/Labo_Micros/Labos_con_Luisja/Laboratorio_Microcontroladores/Laboratorio_4/src/libopencm3-examples/libopencm3/lib/libopencm3_stm32f4.a(usart_common_all.o)
 .debug_macro   0x0000000000000000       0x22 /home/juan/Documents/VIII_Semestre/Labo_Micros/Labos_con_Luisja/Laboratorio_Microcontroladores/Laboratorio_4/src/libopencm3-examples/libopencm3/lib/libopencm3_stm32f4.a(usart_common_all.o)
 .debug_macro   0x0000000000000000       0xe8 /home/juan/Documents/VIII_Semestre/Labo_Micros/Labos_con_Luisja/Laboratorio_Microcontroladores/Laboratorio_4/src/libopencm3-examples/libopencm3/lib/libopencm3_stm32f4.a(usart_common_all.o)
 .debug_macro   0x0000000000000000       0x76 /home/juan/Documents/VIII_Semestre/Labo_Micros/Labos_con_Luisja/Laboratorio_Microcontroladores/Laboratorio_4/src/libopencm3-examples/libopencm3/lib/libopencm3_stm32f4.a(usart_common_all.o)
 .debug_macro   0x0000000000000000      0x280 /home/juan/Documents/VIII_Semestre/Labo_Micros/Labos_con_Luisja/Laboratorio_Microcontroladores/Laboratorio_4/src/libopencm3-examples/libopencm3/lib/libopencm3_stm32f4.a(usart_common_all.o)
 .debug_macro   0x0000000000000000       0x94 /home/juan/Documents/VIII_Semestre/Labo_Micros/Labos_con_Luisja/Laboratorio_Microcontroladores/Laboratorio_4/src/libopencm3-examples/libopencm3/lib/libopencm3_stm32f4.a(usart_common_all.o)
 .debug_macro   0x0000000000000000      0x29e /home/juan/Documents/VIII_Semestre/Labo_Micros/Labos_con_Luisja/Laboratorio_Microcontroladores/Laboratorio_4/src/libopencm3-examples/libopencm3/lib/libopencm3_stm32f4.a(usart_common_all.o)
 .debug_macro   0x0000000000000000       0xa0 /home/juan/Documents/VIII_Semestre/Labo_Micros/Labos_con_Luisja/Laboratorio_Microcontroladores/Laboratorio_4/src/libopencm3-examples/libopencm3/lib/libopencm3_stm32f4.a(usart_common_all.o)
 .debug_macro   0x0000000000000000       0x8e /home/juan/Documents/VIII_Semestre/Labo_Micros/Labos_con_Luisja/Laboratorio_Microcontroladores/Laboratorio_4/src/libopencm3-examples/libopencm3/lib/libopencm3_stm32f4.a(usart_common_all.o)
 .debug_macro   0x0000000000000000       0x28 /home/juan/Documents/VIII_Semestre/Labo_Micros/Labos_con_Luisja/Laboratorio_Microcontroladores/Laboratorio_4/src/libopencm3-examples/libopencm3/lib/libopencm3_stm32f4.a(usart_common_all.o)
 .debug_macro   0x0000000000000000      0xcea /home/juan/Documents/VIII_Semestre/Labo_Micros/Labos_con_Luisja/Laboratorio_Microcontroladores/Laboratorio_4/src/libopencm3-examples/libopencm3/lib/libopencm3_stm32f4.a(usart_common_all.o)
 .group         0x0000000000000000        0xc /home/juan/Documents/VIII_Semestre/Labo_Micros/Labos_con_Luisja/Laboratorio_Microcontroladores/Laboratorio_4/src/libopencm3-examples/libopencm3/lib/libopencm3_stm32f4.a(usart_common_f124.o)
 .group         0x0000000000000000        0xc /home/juan/Documents/VIII_Semestre/Labo_Micros/Labos_con_Luisja/Laboratorio_Microcontroladores/Laboratorio_4/src/libopencm3-examples/libopencm3/lib/libopencm3_stm32f4.a(usart_common_f124.o)
 .group         0x0000000000000000        0xc /home/juan/Documents/VIII_Semestre/Labo_Micros/Labos_con_Luisja/Laboratorio_Microcontroladores/Laboratorio_4/src/libopencm3-examples/libopencm3/lib/libopencm3_stm32f4.a(usart_common_f124.o)
 .group         0x0000000000000000        0xc /home/juan/Documents/VIII_Semestre/Labo_Micros/Labos_con_Luisja/Laboratorio_Microcontroladores/Laboratorio_4/src/libopencm3-examples/libopencm3/lib/libopencm3_stm32f4.a(usart_common_f124.o)
 .group         0x0000000000000000        0xc /home/juan/Documents/VIII_Semestre/Labo_Micros/Labos_con_Luisja/Laboratorio_Microcontroladores/Laboratorio_4/src/libopencm3-examples/libopencm3/lib/libopencm3_stm32f4.a(usart_common_f124.o)
 .group         0x0000000000000000        0xc /home/juan/Documents/VIII_Semestre/Labo_Micros/Labos_con_Luisja/Laboratorio_Microcontroladores/Laboratorio_4/src/libopencm3-examples/libopencm3/lib/libopencm3_stm32f4.a(usart_common_f124.o)
 .group         0x0000000000000000        0xc /home/juan/Documents/VIII_Semestre/Labo_Micros/Labos_con_Luisja/Laboratorio_Microcontroladores/Laboratorio_4/src/libopencm3-examples/libopencm3/lib/libopencm3_stm32f4.a(usart_common_f124.o)
 .group         0x0000000000000000        0xc /home/juan/Documents/VIII_Semestre/Labo_Micros/Labos_con_Luisja/Laboratorio_Microcontroladores/Laboratorio_4/src/libopencm3-examples/libopencm3/lib/libopencm3_stm32f4.a(usart_common_f124.o)
 .group         0x0000000000000000        0xc /home/juan/Documents/VIII_Semestre/Labo_Micros/Labos_con_Luisja/Laboratorio_Microcontroladores/Laboratorio_4/src/libopencm3-examples/libopencm3/lib/libopencm3_stm32f4.a(usart_common_f124.o)
 .group         0x0000000000000000        0xc /home/juan/Documents/VIII_Semestre/Labo_Micros/Labos_con_Luisja/Laboratorio_Microcontroladores/Laboratorio_4/src/libopencm3-examples/libopencm3/lib/libopencm3_stm32f4.a(usart_common_f124.o)
 .group         0x0000000000000000        0xc /home/juan/Documents/VIII_Semestre/Labo_Micros/Labos_con_Luisja/Laboratorio_Microcontroladores/Laboratorio_4/src/libopencm3-examples/libopencm3/lib/libopencm3_stm32f4.a(usart_common_f124.o)
 .group         0x0000000000000000        0xc /home/juan/Documents/VIII_Semestre/Labo_Micros/Labos_con_Luisja/Laboratorio_Microcontroladores/Laboratorio_4/src/libopencm3-examples/libopencm3/lib/libopencm3_stm32f4.a(usart_common_f124.o)
 .group         0x0000000000000000        0xc /home/juan/Documents/VIII_Semestre/Labo_Micros/Labos_con_Luisja/Laboratorio_Microcontroladores/Laboratorio_4/src/libopencm3-examples/libopencm3/lib/libopencm3_stm32f4.a(usart_common_f124.o)
 .text          0x0000000000000000        0x0 /home/juan/Documents/VIII_Semestre/Labo_Micros/Labos_con_Luisja/Laboratorio_Microcontroladores/Laboratorio_4/src/libopencm3-examples/libopencm3/lib/libopencm3_stm32f4.a(usart_common_f124.o)
 .data          0x0000000000000000        0x0 /home/juan/Documents/VIII_Semestre/Labo_Micros/Labos_con_Luisja/Laboratorio_Microcontroladores/Laboratorio_4/src/libopencm3-examples/libopencm3/lib/libopencm3_stm32f4.a(usart_common_f124.o)
 .bss           0x0000000000000000        0x0 /home/juan/Documents/VIII_Semestre/Labo_Micros/Labos_con_Luisja/Laboratorio_Microcontroladores/Laboratorio_4/src/libopencm3-examples/libopencm3/lib/libopencm3_stm32f4.a(usart_common_f124.o)
 .text.usart_send
                0x0000000000000000        0x8 /home/juan/Documents/VIII_Semestre/Labo_Micros/Labos_con_Luisja/Laboratorio_Microcontroladores/Laboratorio_4/src/libopencm3-examples/libopencm3/lib/libopencm3_stm32f4.a(usart_common_f124.o)
 .text.usart_recv
                0x0000000000000000        0x8 /home/juan/Documents/VIII_Semestre/Labo_Micros/Labos_con_Luisja/Laboratorio_Microcontroladores/Laboratorio_4/src/libopencm3-examples/libopencm3/lib/libopencm3_stm32f4.a(usart_common_f124.o)
 .text.usart_wait_send_ready
                0x0000000000000000        0x8 /home/juan/Documents/VIII_Semestre/Labo_Micros/Labos_con_Luisja/Laboratorio_Microcontroladores/Laboratorio_4/src/libopencm3-examples/libopencm3/lib/libopencm3_stm32f4.a(usart_common_f124.o)
 .text.usart_wait_recv_ready
                0x0000000000000000        0x8 /home/juan/Documents/VIII_Semestre/Labo_Micros/Labos_con_Luisja/Laboratorio_Microcontroladores/Laboratorio_4/src/libopencm3-examples/libopencm3/lib/libopencm3_stm32f4.a(usart_common_f124.o)
 .text.usart_get_flag
                0x0000000000000000        0xc /home/juan/Documents/VIII_Semestre/Labo_Micros/Labos_con_Luisja/Laboratorio_Microcontroladores/Laboratorio_4/src/libopencm3-examples/libopencm3/lib/libopencm3_stm32f4.a(usart_common_f124.o)
 .debug_info    0x0000000000000000      0x30c /home/juan/Documents/VIII_Semestre/Labo_Micros/Labos_con_Luisja/Laboratorio_Microcontroladores/Laboratorio_4/src/libopencm3-examples/libopencm3/lib/libopencm3_stm32f4.a(usart_common_f124.o)
 .debug_abbrev  0x0000000000000000      0x121 /home/juan/Documents/VIII_Semestre/Labo_Micros/Labos_con_Luisja/Laboratorio_Microcontroladores/Laboratorio_4/src/libopencm3-examples/libopencm3/lib/libopencm3_stm32f4.a(usart_common_f124.o)
 .debug_loc     0x0000000000000000       0x99 /home/juan/Documents/VIII_Semestre/Labo_Micros/Labos_con_Luisja/Laboratorio_Microcontroladores/Laboratorio_4/src/libopencm3-examples/libopencm3/lib/libopencm3_stm32f4.a(usart_common_f124.o)
 .debug_aranges
                0x0000000000000000       0x40 /home/juan/Documents/VIII_Semestre/Labo_Micros/Labos_con_Luisja/Laboratorio_Microcontroladores/Laboratorio_4/src/libopencm3-examples/libopencm3/lib/libopencm3_stm32f4.a(usart_common_f124.o)
 .debug_ranges  0x0000000000000000       0x30 /home/juan/Documents/VIII_Semestre/Labo_Micros/Labos_con_Luisja/Laboratorio_Microcontroladores/Laboratorio_4/src/libopencm3-examples/libopencm3/lib/libopencm3_stm32f4.a(usart_common_f124.o)
 .debug_macro   0x0000000000000000       0xc2 /home/juan/Documents/VIII_Semestre/Labo_Micros/Labos_con_Luisja/Laboratorio_Microcontroladores/Laboratorio_4/src/libopencm3-examples/libopencm3/lib/libopencm3_stm32f4.a(usart_common_f124.o)
 .debug_macro   0x0000000000000000      0xa9c /home/juan/Documents/VIII_Semestre/Labo_Micros/Labos_con_Luisja/Laboratorio_Microcontroladores/Laboratorio_4/src/libopencm3-examples/libopencm3/lib/libopencm3_stm32f4.a(usart_common_f124.o)
 .debug_macro   0x0000000000000000       0x1c /home/juan/Documents/VIII_Semestre/Labo_Micros/Labos_con_Luisja/Laboratorio_Microcontroladores/Laboratorio_4/src/libopencm3-examples/libopencm3/lib/libopencm3_stm32f4.a(usart_common_f124.o)
 .debug_macro   0x0000000000000000      0x34e /home/juan/Documents/VIII_Semestre/Labo_Micros/Labos_con_Luisja/Laboratorio_Microcontroladores/Laboratorio_4/src/libopencm3-examples/libopencm3/lib/libopencm3_stm32f4.a(usart_common_f124.o)
 .debug_macro   0x0000000000000000       0x22 /home/juan/Documents/VIII_Semestre/Labo_Micros/Labos_con_Luisja/Laboratorio_Microcontroladores/Laboratorio_4/src/libopencm3-examples/libopencm3/lib/libopencm3_stm32f4.a(usart_common_f124.o)
 .debug_macro   0x0000000000000000       0xe8 /home/juan/Documents/VIII_Semestre/Labo_Micros/Labos_con_Luisja/Laboratorio_Microcontroladores/Laboratorio_4/src/libopencm3-examples/libopencm3/lib/libopencm3_stm32f4.a(usart_common_f124.o)
 .debug_macro   0x0000000000000000       0x76 /home/juan/Documents/VIII_Semestre/Labo_Micros/Labos_con_Luisja/Laboratorio_Microcontroladores/Laboratorio_4/src/libopencm3-examples/libopencm3/lib/libopencm3_stm32f4.a(usart_common_f124.o)
 .debug_macro   0x0000000000000000      0x280 /home/juan/Documents/VIII_Semestre/Labo_Micros/Labos_con_Luisja/Laboratorio_Microcontroladores/Laboratorio_4/src/libopencm3-examples/libopencm3/lib/libopencm3_stm32f4.a(usart_common_f124.o)
 .debug_macro   0x0000000000000000       0x94 /home/juan/Documents/VIII_Semestre/Labo_Micros/Labos_con_Luisja/Laboratorio_Microcontroladores/Laboratorio_4/src/libopencm3-examples/libopencm3/lib/libopencm3_stm32f4.a(usart_common_f124.o)
 .debug_macro   0x0000000000000000      0x29e /home/juan/Documents/VIII_Semestre/Labo_Micros/Labos_con_Luisja/Laboratorio_Microcontroladores/Laboratorio_4/src/libopencm3-examples/libopencm3/lib/libopencm3_stm32f4.a(usart_common_f124.o)
 .debug_macro   0x0000000000000000       0xa0 /home/juan/Documents/VIII_Semestre/Labo_Micros/Labos_con_Luisja/Laboratorio_Microcontroladores/Laboratorio_4/src/libopencm3-examples/libopencm3/lib/libopencm3_stm32f4.a(usart_common_f124.o)
 .debug_macro   0x0000000000000000       0x8e /home/juan/Documents/VIII_Semestre/Labo_Micros/Labos_con_Luisja/Laboratorio_Microcontroladores/Laboratorio_4/src/libopencm3-examples/libopencm3/lib/libopencm3_stm32f4.a(usart_common_f124.o)
 .debug_macro   0x0000000000000000       0x28 /home/juan/Documents/VIII_Semestre/Labo_Micros/Labos_con_Luisja/Laboratorio_Microcontroladores/Laboratorio_4/src/libopencm3-examples/libopencm3/lib/libopencm3_stm32f4.a(usart_common_f124.o)
 .debug_macro   0x0000000000000000      0xcea /home/juan/Documents/VIII_Semestre/Labo_Micros/Labos_con_Luisja/Laboratorio_Microcontroladores/Laboratorio_4/src/libopencm3-examples/libopencm3/lib/libopencm3_stm32f4.a(usart_common_f124.o)
 .debug_line    0x0000000000000000      0x2aa /home/juan/Documents/VIII_Semestre/Labo_Micros/Labos_con_Luisja/Laboratorio_Microcontroladores/Laboratorio_4/src/libopencm3-examples/libopencm3/lib/libopencm3_stm32f4.a(usart_common_f124.o)
 .debug_str     0x0000000000000000     0x9fc8 /home/juan/Documents/VIII_Semestre/Labo_Micros/Labos_con_Luisja/Laboratorio_Microcontroladores/Laboratorio_4/src/libopencm3-examples/libopencm3/lib/libopencm3_stm32f4.a(usart_common_f124.o)
 .comment       0x0000000000000000       0x5a /home/juan/Documents/VIII_Semestre/Labo_Micros/Labos_con_Luisja/Laboratorio_Microcontroladores/Laboratorio_4/src/libopencm3-examples/libopencm3/lib/libopencm3_stm32f4.a(usart_common_f124.o)
 .debug_frame   0x0000000000000000       0x60 /home/juan/Documents/VIII_Semestre/Labo_Micros/Labos_con_Luisja/Laboratorio_Microcontroladores/Laboratorio_4/src/libopencm3-examples/libopencm3/lib/libopencm3_stm32f4.a(usart_common_f124.o)
 .ARM.attributes
                0x0000000000000000       0x34 /home/juan/Documents/VIII_Semestre/Labo_Micros/Labos_con_Luisja/Laboratorio_Microcontroladores/Laboratorio_4/src/libopencm3-examples/libopencm3/lib/libopencm3_stm32f4.a(usart_common_f124.o)
 .group         0x0000000000000000        0xc /home/juan/Documents/VIII_Semestre/Labo_Micros/Labos_con_Luisja/Laboratorio_Microcontroladores/Laboratorio_4/src/libopencm3-examples/libopencm3/lib/libopencm3_stm32f4.a(vector.o)
 .group         0x0000000000000000        0xc /home/juan/Documents/VIII_Semestre/Labo_Micros/Labos_con_Luisja/Laboratorio_Microcontroladores/Laboratorio_4/src/libopencm3-examples/libopencm3/lib/libopencm3_stm32f4.a(vector.o)
 .group         0x0000000000000000        0xc /home/juan/Documents/VIII_Semestre/Labo_Micros/Labos_con_Luisja/Laboratorio_Microcontroladores/Laboratorio_4/src/libopencm3-examples/libopencm3/lib/libopencm3_stm32f4.a(vector.o)
 .group         0x0000000000000000        0xc /home/juan/Documents/VIII_Semestre/Labo_Micros/Labos_con_Luisja/Laboratorio_Microcontroladores/Laboratorio_4/src/libopencm3-examples/libopencm3/lib/libopencm3_stm32f4.a(vector.o)
 .group         0x0000000000000000        0xc /home/juan/Documents/VIII_Semestre/Labo_Micros/Labos_con_Luisja/Laboratorio_Microcontroladores/Laboratorio_4/src/libopencm3-examples/libopencm3/lib/libopencm3_stm32f4.a(vector.o)
 .group         0x0000000000000000        0xc /home/juan/Documents/VIII_Semestre/Labo_Micros/Labos_con_Luisja/Laboratorio_Microcontroladores/Laboratorio_4/src/libopencm3-examples/libopencm3/lib/libopencm3_stm32f4.a(vector.o)
 .group         0x0000000000000000        0xc /home/juan/Documents/VIII_Semestre/Labo_Micros/Labos_con_Luisja/Laboratorio_Microcontroladores/Laboratorio_4/src/libopencm3-examples/libopencm3/lib/libopencm3_stm32f4.a(vector.o)
 .group         0x0000000000000000        0xc /home/juan/Documents/VIII_Semestre/Labo_Micros/Labos_con_Luisja/Laboratorio_Microcontroladores/Laboratorio_4/src/libopencm3-examples/libopencm3/lib/libopencm3_stm32f4.a(vector.o)
 .group         0x0000000000000000        0xc /home/juan/Documents/VIII_Semestre/Labo_Micros/Labos_con_Luisja/Laboratorio_Microcontroladores/Laboratorio_4/src/libopencm3-examples/libopencm3/lib/libopencm3_stm32f4.a(vector.o)
 .text          0x0000000000000000        0x0 /home/juan/Documents/VIII_Semestre/Labo_Micros/Labos_con_Luisja/Laboratorio_Microcontroladores/Laboratorio_4/src/libopencm3-examples/libopencm3/lib/libopencm3_stm32f4.a(vector.o)
 .data          0x0000000000000000        0x0 /home/juan/Documents/VIII_Semestre/Labo_Micros/Labos_con_Luisja/Laboratorio_Microcontroladores/Laboratorio_4/src/libopencm3-examples/libopencm3/lib/libopencm3_stm32f4.a(vector.o)
 .bss           0x0000000000000000        0x0 /home/juan/Documents/VIII_Semestre/Labo_Micros/Labos_con_Luisja/Laboratorio_Microcontroladores/Laboratorio_4/src/libopencm3-examples/libopencm3/lib/libopencm3_stm32f4.a(vector.o)
 .debug_macro   0x0000000000000000      0xa9c /home/juan/Documents/VIII_Semestre/Labo_Micros/Labos_con_Luisja/Laboratorio_Microcontroladores/Laboratorio_4/src/libopencm3-examples/libopencm3/lib/libopencm3_stm32f4.a(vector.o)
 .debug_macro   0x0000000000000000       0x76 /home/juan/Documents/VIII_Semestre/Labo_Micros/Labos_con_Luisja/Laboratorio_Microcontroladores/Laboratorio_4/src/libopencm3-examples/libopencm3/lib/libopencm3_stm32f4.a(vector.o)
 .debug_macro   0x0000000000000000       0x1c /home/juan/Documents/VIII_Semestre/Labo_Micros/Labos_con_Luisja/Laboratorio_Microcontroladores/Laboratorio_4/src/libopencm3-examples/libopencm3/lib/libopencm3_stm32f4.a(vector.o)
 .debug_macro   0x0000000000000000      0x34e /home/juan/Documents/VIII_Semestre/Labo_Micros/Labos_con_Luisja/Laboratorio_Microcontroladores/Laboratorio_4/src/libopencm3-examples/libopencm3/lib/libopencm3_stm32f4.a(vector.o)
 .debug_macro   0x0000000000000000       0x22 /home/juan/Documents/VIII_Semestre/Labo_Micros/Labos_con_Luisja/Laboratorio_Microcontroladores/Laboratorio_4/src/libopencm3-examples/libopencm3/lib/libopencm3_stm32f4.a(vector.o)
 .debug_macro   0x0000000000000000       0xe8 /home/juan/Documents/VIII_Semestre/Labo_Micros/Labos_con_Luisja/Laboratorio_Microcontroladores/Laboratorio_4/src/libopencm3-examples/libopencm3/lib/libopencm3_stm32f4.a(vector.o)
 .debug_macro   0x0000000000000000       0x6e /home/juan/Documents/VIII_Semestre/Labo_Micros/Labos_con_Luisja/Laboratorio_Microcontroladores/Laboratorio_4/src/libopencm3-examples/libopencm3/lib/libopencm3_stm32f4.a(vector.o)
 .debug_macro   0x0000000000000000      0x22c /home/juan/Documents/VIII_Semestre/Labo_Micros/Labos_con_Luisja/Laboratorio_Microcontroladores/Laboratorio_4/src/libopencm3-examples/libopencm3/lib/libopencm3_stm32f4.a(vector.o)
 .group         0x0000000000000000        0xc /home/juan/Documents/VIII_Semestre/Labo_Micros/Labos_con_Luisja/Laboratorio_Microcontroladores/Laboratorio_4/src/libopencm3-examples/libopencm3/lib/libopencm3_stm32f4.a(systick.o)
 .group         0x0000000000000000        0xc /home/juan/Documents/VIII_Semestre/Labo_Micros/Labos_con_Luisja/Laboratorio_Microcontroladores/Laboratorio_4/src/libopencm3-examples/libopencm3/lib/libopencm3_stm32f4.a(systick.o)
 .group         0x0000000000000000        0xc /home/juan/Documents/VIII_Semestre/Labo_Micros/Labos_con_Luisja/Laboratorio_Microcontroladores/Laboratorio_4/src/libopencm3-examples/libopencm3/lib/libopencm3_stm32f4.a(systick.o)
 .group         0x0000000000000000        0xc /home/juan/Documents/VIII_Semestre/Labo_Micros/Labos_con_Luisja/Laboratorio_Microcontroladores/Laboratorio_4/src/libopencm3-examples/libopencm3/lib/libopencm3_stm32f4.a(systick.o)
 .group         0x0000000000000000        0xc /home/juan/Documents/VIII_Semestre/Labo_Micros/Labos_con_Luisja/Laboratorio_Microcontroladores/Laboratorio_4/src/libopencm3-examples/libopencm3/lib/libopencm3_stm32f4.a(systick.o)
 .group         0x0000000000000000        0xc /home/juan/Documents/VIII_Semestre/Labo_Micros/Labos_con_Luisja/Laboratorio_Microcontroladores/Laboratorio_4/src/libopencm3-examples/libopencm3/lib/libopencm3_stm32f4.a(systick.o)
 .group         0x0000000000000000        0xc /home/juan/Documents/VIII_Semestre/Labo_Micros/Labos_con_Luisja/Laboratorio_Microcontroladores/Laboratorio_4/src/libopencm3-examples/libopencm3/lib/libopencm3_stm32f4.a(systick.o)
 .text          0x0000000000000000        0x0 /home/juan/Documents/VIII_Semestre/Labo_Micros/Labos_con_Luisja/Laboratorio_Microcontroladores/Laboratorio_4/src/libopencm3-examples/libopencm3/lib/libopencm3_stm32f4.a(systick.o)
 .data          0x0000000000000000        0x0 /home/juan/Documents/VIII_Semestre/Labo_Micros/Labos_con_Luisja/Laboratorio_Microcontroladores/Laboratorio_4/src/libopencm3-examples/libopencm3/lib/libopencm3_stm32f4.a(systick.o)
 .bss           0x0000000000000000        0x0 /home/juan/Documents/VIII_Semestre/Labo_Micros/Labos_con_Luisja/Laboratorio_Microcontroladores/Laboratorio_4/src/libopencm3-examples/libopencm3/lib/libopencm3_stm32f4.a(systick.o)
 .text.systick_get_reload
                0x0000000000000000       0x10 /home/juan/Documents/VIII_Semestre/Labo_Micros/Labos_con_Luisja/Laboratorio_Microcontroladores/Laboratorio_4/src/libopencm3-examples/libopencm3/lib/libopencm3_stm32f4.a(systick.o)
 .text.systick_get_value
                0x0000000000000000       0x10 /home/juan/Documents/VIII_Semestre/Labo_Micros/Labos_con_Luisja/Laboratorio_Microcontroladores/Laboratorio_4/src/libopencm3-examples/libopencm3/lib/libopencm3_stm32f4.a(systick.o)
 .text.systick_set_frequency
                0x0000000000000000       0x38 /home/juan/Documents/VIII_Semestre/Labo_Micros/Labos_con_Luisja/Laboratorio_Microcontroladores/Laboratorio_4/src/libopencm3-examples/libopencm3/lib/libopencm3_stm32f4.a(systick.o)
 .text.systick_interrupt_disable
                0x0000000000000000       0x10 /home/juan/Documents/VIII_Semestre/Labo_Micros/Labos_con_Luisja/Laboratorio_Microcontroladores/Laboratorio_4/src/libopencm3-examples/libopencm3/lib/libopencm3_stm32f4.a(systick.o)
 .text.systick_counter_disable
                0x0000000000000000       0x10 /home/juan/Documents/VIII_Semestre/Labo_Micros/Labos_con_Luisja/Laboratorio_Microcontroladores/Laboratorio_4/src/libopencm3-examples/libopencm3/lib/libopencm3_stm32f4.a(systick.o)
 .text.systick_get_countflag
                0x0000000000000000       0x10 /home/juan/Documents/VIII_Semestre/Labo_Micros/Labos_con_Luisja/Laboratorio_Microcontroladores/Laboratorio_4/src/libopencm3-examples/libopencm3/lib/libopencm3_stm32f4.a(systick.o)
 .text.systick_clear
                0x0000000000000000        0xc /home/juan/Documents/VIII_Semestre/Labo_Micros/Labos_con_Luisja/Laboratorio_Microcontroladores/Laboratorio_4/src/libopencm3-examples/libopencm3/lib/libopencm3_stm32f4.a(systick.o)
 .text.systick_get_calib
                0x0000000000000000       0x10 /home/juan/Documents/VIII_Semestre/Labo_Micros/Labos_con_Luisja/Laboratorio_Microcontroladores/Laboratorio_4/src/libopencm3-examples/libopencm3/lib/libopencm3_stm32f4.a(systick.o)
 .debug_macro   0x0000000000000000      0xa9c /home/juan/Documents/VIII_Semestre/Labo_Micros/Labos_con_Luisja/Laboratorio_Microcontroladores/Laboratorio_4/src/libopencm3-examples/libopencm3/lib/libopencm3_stm32f4.a(systick.o)
 .debug_macro   0x0000000000000000       0x76 /home/juan/Documents/VIII_Semestre/Labo_Micros/Labos_con_Luisja/Laboratorio_Microcontroladores/Laboratorio_4/src/libopencm3-examples/libopencm3/lib/libopencm3_stm32f4.a(systick.o)
 .debug_macro   0x0000000000000000       0x1c /home/juan/Documents/VIII_Semestre/Labo_Micros/Labos_con_Luisja/Laboratorio_Microcontroladores/Laboratorio_4/src/libopencm3-examples/libopencm3/lib/libopencm3_stm32f4.a(systick.o)
 .debug_macro   0x0000000000000000      0x34e /home/juan/Documents/VIII_Semestre/Labo_Micros/Labos_con_Luisja/Laboratorio_Microcontroladores/Laboratorio_4/src/libopencm3-examples/libopencm3/lib/libopencm3_stm32f4.a(systick.o)
 .debug_macro   0x0000000000000000       0x22 /home/juan/Documents/VIII_Semestre/Labo_Micros/Labos_con_Luisja/Laboratorio_Microcontroladores/Laboratorio_4/src/libopencm3-examples/libopencm3/lib/libopencm3_stm32f4.a(systick.o)
 .debug_macro   0x0000000000000000       0xe8 /home/juan/Documents/VIII_Semestre/Labo_Micros/Labos_con_Luisja/Laboratorio_Microcontroladores/Laboratorio_4/src/libopencm3-examples/libopencm3/lib/libopencm3_stm32f4.a(systick.o)
 .group         0x0000000000000000        0xc /home/juan/Documents/VIII_Semestre/Labo_Micros/Labos_con_Luisja/Laboratorio_Microcontroladores/Laboratorio_4/src/libopencm3-examples/libopencm3/lib/libopencm3_stm32f4.a(flash_common_all.o)
 .group         0x0000000000000000        0xc /home/juan/Documents/VIII_Semestre/Labo_Micros/Labos_con_Luisja/Laboratorio_Microcontroladores/Laboratorio_4/src/libopencm3-examples/libopencm3/lib/libopencm3_stm32f4.a(flash_common_all.o)
 .group         0x0000000000000000        0xc /home/juan/Documents/VIII_Semestre/Labo_Micros/Labos_con_Luisja/Laboratorio_Microcontroladores/Laboratorio_4/src/libopencm3-examples/libopencm3/lib/libopencm3_stm32f4.a(flash_common_all.o)
 .group         0x0000000000000000        0xc /home/juan/Documents/VIII_Semestre/Labo_Micros/Labos_con_Luisja/Laboratorio_Microcontroladores/Laboratorio_4/src/libopencm3-examples/libopencm3/lib/libopencm3_stm32f4.a(flash_common_all.o)
 .group         0x0000000000000000        0xc /home/juan/Documents/VIII_Semestre/Labo_Micros/Labos_con_Luisja/Laboratorio_Microcontroladores/Laboratorio_4/src/libopencm3-examples/libopencm3/lib/libopencm3_stm32f4.a(flash_common_all.o)
 .group         0x0000000000000000        0xc /home/juan/Documents/VIII_Semestre/Labo_Micros/Labos_con_Luisja/Laboratorio_Microcontroladores/Laboratorio_4/src/libopencm3-examples/libopencm3/lib/libopencm3_stm32f4.a(flash_common_all.o)
 .group         0x0000000000000000        0xc /home/juan/Documents/VIII_Semestre/Labo_Micros/Labos_con_Luisja/Laboratorio_Microcontroladores/Laboratorio_4/src/libopencm3-examples/libopencm3/lib/libopencm3_stm32f4.a(flash_common_all.o)
 .group         0x0000000000000000        0xc /home/juan/Documents/VIII_Semestre/Labo_Micros/Labos_con_Luisja/Laboratorio_Microcontroladores/Laboratorio_4/src/libopencm3-examples/libopencm3/lib/libopencm3_stm32f4.a(flash_common_all.o)
 .group         0x0000000000000000        0xc /home/juan/Documents/VIII_Semestre/Labo_Micros/Labos_con_Luisja/Laboratorio_Microcontroladores/Laboratorio_4/src/libopencm3-examples/libopencm3/lib/libopencm3_stm32f4.a(flash_common_all.o)
 .group         0x0000000000000000        0xc /home/juan/Documents/VIII_Semestre/Labo_Micros/Labos_con_Luisja/Laboratorio_Microcontroladores/Laboratorio_4/src/libopencm3-examples/libopencm3/lib/libopencm3_stm32f4.a(flash_common_all.o)
 .text          0x0000000000000000        0x0 /home/juan/Documents/VIII_Semestre/Labo_Micros/Labos_con_Luisja/Laboratorio_Microcontroladores/Laboratorio_4/src/libopencm3-examples/libopencm3/lib/libopencm3_stm32f4.a(flash_common_all.o)
 .data          0x0000000000000000        0x0 /home/juan/Documents/VIII_Semestre/Labo_Micros/Labos_con_Luisja/Laboratorio_Microcontroladores/Laboratorio_4/src/libopencm3-examples/libopencm3/lib/libopencm3_stm32f4.a(flash_common_all.o)
 .bss           0x0000000000000000        0x0 /home/juan/Documents/VIII_Semestre/Labo_Micros/Labos_con_Luisja/Laboratorio_Microcontroladores/Laboratorio_4/src/libopencm3-examples/libopencm3/lib/libopencm3_stm32f4.a(flash_common_all.o)
 .text.flash_prefetch_enable
                0x0000000000000000       0x10 /home/juan/Documents/VIII_Semestre/Labo_Micros/Labos_con_Luisja/Laboratorio_Microcontroladores/Laboratorio_4/src/libopencm3-examples/libopencm3/lib/libopencm3_stm32f4.a(flash_common_all.o)
 .text.flash_prefetch_disable
                0x0000000000000000       0x10 /home/juan/Documents/VIII_Semestre/Labo_Micros/Labos_con_Luisja/Laboratorio_Microcontroladores/Laboratorio_4/src/libopencm3-examples/libopencm3/lib/libopencm3_stm32f4.a(flash_common_all.o)
 .text.flash_unlock_option_bytes
                0x0000000000000000       0x18 /home/juan/Documents/VIII_Semestre/Labo_Micros/Labos_con_Luisja/Laboratorio_Microcontroladores/Laboratorio_4/src/libopencm3-examples/libopencm3/lib/libopencm3_stm32f4.a(flash_common_all.o)
 .debug_macro   0x0000000000000000      0xa9c /home/juan/Documents/VIII_Semestre/Labo_Micros/Labos_con_Luisja/Laboratorio_Microcontroladores/Laboratorio_4/src/libopencm3-examples/libopencm3/lib/libopencm3_stm32f4.a(flash_common_all.o)
 .debug_macro   0x0000000000000000       0x1c /home/juan/Documents/VIII_Semestre/Labo_Micros/Labos_con_Luisja/Laboratorio_Microcontroladores/Laboratorio_4/src/libopencm3-examples/libopencm3/lib/libopencm3_stm32f4.a(flash_common_all.o)
 .debug_macro   0x0000000000000000      0x34e /home/juan/Documents/VIII_Semestre/Labo_Micros/Labos_con_Luisja/Laboratorio_Microcontroladores/Laboratorio_4/src/libopencm3-examples/libopencm3/lib/libopencm3_stm32f4.a(flash_common_all.o)
 .debug_macro   0x0000000000000000       0x22 /home/juan/Documents/VIII_Semestre/Labo_Micros/Labos_con_Luisja/Laboratorio_Microcontroladores/Laboratorio_4/src/libopencm3-examples/libopencm3/lib/libopencm3_stm32f4.a(flash_common_all.o)
 .debug_macro   0x0000000000000000       0xe8 /home/juan/Documents/VIII_Semestre/Labo_Micros/Labos_con_Luisja/Laboratorio_Microcontroladores/Laboratorio_4/src/libopencm3-examples/libopencm3/lib/libopencm3_stm32f4.a(flash_common_all.o)
 .debug_macro   0x0000000000000000       0x76 /home/juan/Documents/VIII_Semestre/Labo_Micros/Labos_con_Luisja/Laboratorio_Microcontroladores/Laboratorio_4/src/libopencm3-examples/libopencm3/lib/libopencm3_stm32f4.a(flash_common_all.o)
 .debug_macro   0x0000000000000000      0x280 /home/juan/Documents/VIII_Semestre/Labo_Micros/Labos_con_Luisja/Laboratorio_Microcontroladores/Laboratorio_4/src/libopencm3-examples/libopencm3/lib/libopencm3_stm32f4.a(flash_common_all.o)
 .debug_macro   0x0000000000000000       0x1c /home/juan/Documents/VIII_Semestre/Labo_Micros/Labos_con_Luisja/Laboratorio_Microcontroladores/Laboratorio_4/src/libopencm3-examples/libopencm3/lib/libopencm3_stm32f4.a(flash_common_all.o)
 .debug_macro   0x0000000000000000      0x143 /home/juan/Documents/VIII_Semestre/Labo_Micros/Labos_con_Luisja/Laboratorio_Microcontroladores/Laboratorio_4/src/libopencm3-examples/libopencm3/lib/libopencm3_stm32f4.a(flash_common_all.o)
 .debug_macro   0x0000000000000000       0x10 /home/juan/Documents/VIII_Semestre/Labo_Micros/Labos_con_Luisja/Laboratorio_Microcontroladores/Laboratorio_4/src/libopencm3-examples/libopencm3/lib/libopencm3_stm32f4.a(flash_common_all.o)
 .group         0x0000000000000000        0xc /home/juan/Documents/VIII_Semestre/Labo_Micros/Labos_con_Luisja/Laboratorio_Microcontroladores/Laboratorio_4/src/libopencm3-examples/libopencm3/lib/libopencm3_stm32f4.a(flash_common_idcache.o)
 .group         0x0000000000000000        0xc /home/juan/Documents/VIII_Semestre/Labo_Micros/Labos_con_Luisja/Laboratorio_Microcontroladores/Laboratorio_4/src/libopencm3-examples/libopencm3/lib/libopencm3_stm32f4.a(flash_common_idcache.o)
 .group         0x0000000000000000        0xc /home/juan/Documents/VIII_Semestre/Labo_Micros/Labos_con_Luisja/Laboratorio_Microcontroladores/Laboratorio_4/src/libopencm3-examples/libopencm3/lib/libopencm3_stm32f4.a(flash_common_idcache.o)
 .group         0x0000000000000000        0xc /home/juan/Documents/VIII_Semestre/Labo_Micros/Labos_con_Luisja/Laboratorio_Microcontroladores/Laboratorio_4/src/libopencm3-examples/libopencm3/lib/libopencm3_stm32f4.a(flash_common_idcache.o)
 .group         0x0000000000000000        0xc /home/juan/Documents/VIII_Semestre/Labo_Micros/Labos_con_Luisja/Laboratorio_Microcontroladores/Laboratorio_4/src/libopencm3-examples/libopencm3/lib/libopencm3_stm32f4.a(flash_common_idcache.o)
 .group         0x0000000000000000        0xc /home/juan/Documents/VIII_Semestre/Labo_Micros/Labos_con_Luisja/Laboratorio_Microcontroladores/Laboratorio_4/src/libopencm3-examples/libopencm3/lib/libopencm3_stm32f4.a(flash_common_idcache.o)
 .group         0x0000000000000000        0xc /home/juan/Documents/VIII_Semestre/Labo_Micros/Labos_con_Luisja/Laboratorio_Microcontroladores/Laboratorio_4/src/libopencm3-examples/libopencm3/lib/libopencm3_stm32f4.a(flash_common_idcache.o)
 .group         0x0000000000000000        0xc /home/juan/Documents/VIII_Semestre/Labo_Micros/Labos_con_Luisja/Laboratorio_Microcontroladores/Laboratorio_4/src/libopencm3-examples/libopencm3/lib/libopencm3_stm32f4.a(flash_common_idcache.o)
 .group         0x0000000000000000        0xc /home/juan/Documents/VIII_Semestre/Labo_Micros/Labos_con_Luisja/Laboratorio_Microcontroladores/Laboratorio_4/src/libopencm3-examples/libopencm3/lib/libopencm3_stm32f4.a(flash_common_idcache.o)
 .group         0x0000000000000000        0xc /home/juan/Documents/VIII_Semestre/Labo_Micros/Labos_con_Luisja/Laboratorio_Microcontroladores/Laboratorio_4/src/libopencm3-examples/libopencm3/lib/libopencm3_stm32f4.a(flash_common_idcache.o)
 .text          0x0000000000000000        0x0 /home/juan/Documents/VIII_Semestre/Labo_Micros/Labos_con_Luisja/Laboratorio_Microcontroladores/Laboratorio_4/src/libopencm3-examples/libopencm3/lib/libopencm3_stm32f4.a(flash_common_idcache.o)
 .data          0x0000000000000000        0x0 /home/juan/Documents/VIII_Semestre/Labo_Micros/Labos_con_Luisja/Laboratorio_Microcontroladores/Laboratorio_4/src/libopencm3-examples/libopencm3/lib/libopencm3_stm32f4.a(flash_common_idcache.o)
 .bss           0x0000000000000000        0x0 /home/juan/Documents/VIII_Semestre/Labo_Micros/Labos_con_Luisja/Laboratorio_Microcontroladores/Laboratorio_4/src/libopencm3-examples/libopencm3/lib/libopencm3_stm32f4.a(flash_common_idcache.o)
 .text.flash_dcache_reset
                0x0000000000000000       0x10 /home/juan/Documents/VIII_Semestre/Labo_Micros/Labos_con_Luisja/Laboratorio_Microcontroladores/Laboratorio_4/src/libopencm3-examples/libopencm3/lib/libopencm3_stm32f4.a(flash_common_idcache.o)
 .text.flash_icache_reset
                0x0000000000000000       0x10 /home/juan/Documents/VIII_Semestre/Labo_Micros/Labos_con_Luisja/Laboratorio_Microcontroladores/Laboratorio_4/src/libopencm3-examples/libopencm3/lib/libopencm3_stm32f4.a(flash_common_idcache.o)
 .debug_macro   0x0000000000000000      0xa9c /home/juan/Documents/VIII_Semestre/Labo_Micros/Labos_con_Luisja/Laboratorio_Microcontroladores/Laboratorio_4/src/libopencm3-examples/libopencm3/lib/libopencm3_stm32f4.a(flash_common_idcache.o)
 .debug_macro   0x0000000000000000       0x1c /home/juan/Documents/VIII_Semestre/Labo_Micros/Labos_con_Luisja/Laboratorio_Microcontroladores/Laboratorio_4/src/libopencm3-examples/libopencm3/lib/libopencm3_stm32f4.a(flash_common_idcache.o)
 .debug_macro   0x0000000000000000      0x34e /home/juan/Documents/VIII_Semestre/Labo_Micros/Labos_con_Luisja/Laboratorio_Microcontroladores/Laboratorio_4/src/libopencm3-examples/libopencm3/lib/libopencm3_stm32f4.a(flash_common_idcache.o)
 .debug_macro   0x0000000000000000       0x22 /home/juan/Documents/VIII_Semestre/Labo_Micros/Labos_con_Luisja/Laboratorio_Microcontroladores/Laboratorio_4/src/libopencm3-examples/libopencm3/lib/libopencm3_stm32f4.a(flash_common_idcache.o)
 .debug_macro   0x0000000000000000       0xe8 /home/juan/Documents/VIII_Semestre/Labo_Micros/Labos_con_Luisja/Laboratorio_Microcontroladores/Laboratorio_4/src/libopencm3-examples/libopencm3/lib/libopencm3_stm32f4.a(flash_common_idcache.o)
 .debug_macro   0x0000000000000000       0x76 /home/juan/Documents/VIII_Semestre/Labo_Micros/Labos_con_Luisja/Laboratorio_Microcontroladores/Laboratorio_4/src/libopencm3-examples/libopencm3/lib/libopencm3_stm32f4.a(flash_common_idcache.o)
 .debug_macro   0x0000000000000000      0x280 /home/juan/Documents/VIII_Semestre/Labo_Micros/Labos_con_Luisja/Laboratorio_Microcontroladores/Laboratorio_4/src/libopencm3-examples/libopencm3/lib/libopencm3_stm32f4.a(flash_common_idcache.o)
 .debug_macro   0x0000000000000000       0x1c /home/juan/Documents/VIII_Semestre/Labo_Micros/Labos_con_Luisja/Laboratorio_Microcontroladores/Laboratorio_4/src/libopencm3-examples/libopencm3/lib/libopencm3_stm32f4.a(flash_common_idcache.o)
 .debug_macro   0x0000000000000000      0x143 /home/juan/Documents/VIII_Semestre/Labo_Micros/Labos_con_Luisja/Laboratorio_Microcontroladores/Laboratorio_4/src/libopencm3-examples/libopencm3/lib/libopencm3_stm32f4.a(flash_common_idcache.o)
 .debug_macro   0x0000000000000000       0x10 /home/juan/Documents/VIII_Semestre/Labo_Micros/Labos_con_Luisja/Laboratorio_Microcontroladores/Laboratorio_4/src/libopencm3-examples/libopencm3/lib/libopencm3_stm32f4.a(flash_common_idcache.o)
 .group         0x0000000000000000        0xc /home/juan/Documents/VIII_Semestre/Labo_Micros/Labos_con_Luisja/Laboratorio_Microcontroladores/Laboratorio_4/src/libopencm3-examples/libopencm3/lib/libopencm3_stm32f4.a(pwr.o)
 .group         0x0000000000000000        0xc /home/juan/Documents/VIII_Semestre/Labo_Micros/Labos_con_Luisja/Laboratorio_Microcontroladores/Laboratorio_4/src/libopencm3-examples/libopencm3/lib/libopencm3_stm32f4.a(pwr.o)
 .group         0x0000000000000000        0xc /home/juan/Documents/VIII_Semestre/Labo_Micros/Labos_con_Luisja/Laboratorio_Microcontroladores/Laboratorio_4/src/libopencm3-examples/libopencm3/lib/libopencm3_stm32f4.a(pwr.o)
 .group         0x0000000000000000        0xc /home/juan/Documents/VIII_Semestre/Labo_Micros/Labos_con_Luisja/Laboratorio_Microcontroladores/Laboratorio_4/src/libopencm3-examples/libopencm3/lib/libopencm3_stm32f4.a(pwr.o)
 .group         0x0000000000000000        0xc /home/juan/Documents/VIII_Semestre/Labo_Micros/Labos_con_Luisja/Laboratorio_Microcontroladores/Laboratorio_4/src/libopencm3-examples/libopencm3/lib/libopencm3_stm32f4.a(pwr.o)
 .group         0x0000000000000000        0xc /home/juan/Documents/VIII_Semestre/Labo_Micros/Labos_con_Luisja/Laboratorio_Microcontroladores/Laboratorio_4/src/libopencm3-examples/libopencm3/lib/libopencm3_stm32f4.a(pwr.o)
 .group         0x0000000000000000        0xc /home/juan/Documents/VIII_Semestre/Labo_Micros/Labos_con_Luisja/Laboratorio_Microcontroladores/Laboratorio_4/src/libopencm3-examples/libopencm3/lib/libopencm3_stm32f4.a(pwr.o)
 .group         0x0000000000000000        0xc /home/juan/Documents/VIII_Semestre/Labo_Micros/Labos_con_Luisja/Laboratorio_Microcontroladores/Laboratorio_4/src/libopencm3-examples/libopencm3/lib/libopencm3_stm32f4.a(pwr.o)
 .group         0x0000000000000000        0xc /home/juan/Documents/VIII_Semestre/Labo_Micros/Labos_con_Luisja/Laboratorio_Microcontroladores/Laboratorio_4/src/libopencm3-examples/libopencm3/lib/libopencm3_stm32f4.a(pwr.o)
 .text          0x0000000000000000        0x0 /home/juan/Documents/VIII_Semestre/Labo_Micros/Labos_con_Luisja/Laboratorio_Microcontroladores/Laboratorio_4/src/libopencm3-examples/libopencm3/lib/libopencm3_stm32f4.a(pwr.o)
 .data          0x0000000000000000        0x0 /home/juan/Documents/VIII_Semestre/Labo_Micros/Labos_con_Luisja/Laboratorio_Microcontroladores/Laboratorio_4/src/libopencm3-examples/libopencm3/lib/libopencm3_stm32f4.a(pwr.o)
 .bss           0x0000000000000000        0x0 /home/juan/Documents/VIII_Semestre/Labo_Micros/Labos_con_Luisja/Laboratorio_Microcontroladores/Laboratorio_4/src/libopencm3-examples/libopencm3/lib/libopencm3_stm32f4.a(pwr.o)
 .debug_macro   0x0000000000000000      0xa9c /home/juan/Documents/VIII_Semestre/Labo_Micros/Labos_con_Luisja/Laboratorio_Microcontroladores/Laboratorio_4/src/libopencm3-examples/libopencm3/lib/libopencm3_stm32f4.a(pwr.o)
 .debug_macro   0x0000000000000000       0x1c /home/juan/Documents/VIII_Semestre/Labo_Micros/Labos_con_Luisja/Laboratorio_Microcontroladores/Laboratorio_4/src/libopencm3-examples/libopencm3/lib/libopencm3_stm32f4.a(pwr.o)
 .debug_macro   0x0000000000000000      0x34e /home/juan/Documents/VIII_Semestre/Labo_Micros/Labos_con_Luisja/Laboratorio_Microcontroladores/Laboratorio_4/src/libopencm3-examples/libopencm3/lib/libopencm3_stm32f4.a(pwr.o)
 .debug_macro   0x0000000000000000       0x22 /home/juan/Documents/VIII_Semestre/Labo_Micros/Labos_con_Luisja/Laboratorio_Microcontroladores/Laboratorio_4/src/libopencm3-examples/libopencm3/lib/libopencm3_stm32f4.a(pwr.o)
 .debug_macro   0x0000000000000000       0xe8 /home/juan/Documents/VIII_Semestre/Labo_Micros/Labos_con_Luisja/Laboratorio_Microcontroladores/Laboratorio_4/src/libopencm3-examples/libopencm3/lib/libopencm3_stm32f4.a(pwr.o)
 .debug_macro   0x0000000000000000       0x76 /home/juan/Documents/VIII_Semestre/Labo_Micros/Labos_con_Luisja/Laboratorio_Microcontroladores/Laboratorio_4/src/libopencm3-examples/libopencm3/lib/libopencm3_stm32f4.a(pwr.o)
 .debug_macro   0x0000000000000000      0x280 /home/juan/Documents/VIII_Semestre/Labo_Micros/Labos_con_Luisja/Laboratorio_Microcontroladores/Laboratorio_4/src/libopencm3-examples/libopencm3/lib/libopencm3_stm32f4.a(pwr.o)
 .debug_macro   0x0000000000000000       0x8e /home/juan/Documents/VIII_Semestre/Labo_Micros/Labos_con_Luisja/Laboratorio_Microcontroladores/Laboratorio_4/src/libopencm3-examples/libopencm3/lib/libopencm3_stm32f4.a(pwr.o)
 .debug_macro   0x0000000000000000       0x28 /home/juan/Documents/VIII_Semestre/Labo_Micros/Labos_con_Luisja/Laboratorio_Microcontroladores/Laboratorio_4/src/libopencm3-examples/libopencm3/lib/libopencm3_stm32f4.a(pwr.o)
 .data          0x0000000000000000        0x0 /usr/lib/gcc/arm-none-eabi/9.2.1/../../../arm-none-eabi/lib/thumb/v7e-m+fp/hard/libc.a(lib_a-printf.o)
 .bss           0x0000000000000000        0x0 /usr/lib/gcc/arm-none-eabi/9.2.1/../../../arm-none-eabi/lib/thumb/v7e-m+fp/hard/libc.a(lib_a-printf.o)
 .data          0x0000000000000000        0x0 /usr/lib/gcc/arm-none-eabi/9.2.1/../../../arm-none-eabi/lib/thumb/v7e-m+fp/hard/libc.a(lib_a-puts.o)
 .bss           0x0000000000000000        0x0 /usr/lib/gcc/arm-none-eabi/9.2.1/../../../arm-none-eabi/lib/thumb/v7e-m+fp/hard/libc.a(lib_a-puts.o)
 .data          0x0000000000000000        0x0 /usr/lib/gcc/arm-none-eabi/9.2.1/../../../arm-none-eabi/lib/thumb/v7e-m+fp/hard/libc.a(lib_a-strlen.o)
 .bss           0x0000000000000000        0x0 /usr/lib/gcc/arm-none-eabi/9.2.1/../../../arm-none-eabi/lib/thumb/v7e-m+fp/hard/libc.a(lib_a-strlen.o)
 .data          0x0000000000000000        0x0 /usr/lib/gcc/arm-none-eabi/9.2.1/../../../arm-none-eabi/lib/thumb/v7e-m+fp/hard/libc.a(lib_a-vfprintf.o)
 .bss           0x0000000000000000        0x0 /usr/lib/gcc/arm-none-eabi/9.2.1/../../../arm-none-eabi/lib/thumb/v7e-m+fp/hard/libc.a(lib_a-vfprintf.o)
 .data          0x0000000000000000        0x0 /usr/lib/gcc/arm-none-eabi/9.2.1/../../../arm-none-eabi/lib/thumb/v7e-m+fp/hard/libc.a(lib_a-wsetup.o)
 .bss           0x0000000000000000        0x0 /usr/lib/gcc/arm-none-eabi/9.2.1/../../../arm-none-eabi/lib/thumb/v7e-m+fp/hard/libc.a(lib_a-wsetup.o)
 .data          0x0000000000000000        0x0 /usr/lib/gcc/arm-none-eabi/9.2.1/../../../arm-none-eabi/lib/thumb/v7e-m+fp/hard/libc.a(lib_a-dtoa.o)
 .bss           0x0000000000000000        0x0 /usr/lib/gcc/arm-none-eabi/9.2.1/../../../arm-none-eabi/lib/thumb/v7e-m+fp/hard/libc.a(lib_a-dtoa.o)
 .data          0x0000000000000000        0x0 /usr/lib/gcc/arm-none-eabi/9.2.1/../../../arm-none-eabi/lib/thumb/v7e-m+fp/hard/libc.a(lib_a-fflush.o)
 .bss           0x0000000000000000        0x0 /usr/lib/gcc/arm-none-eabi/9.2.1/../../../arm-none-eabi/lib/thumb/v7e-m+fp/hard/libc.a(lib_a-fflush.o)
 .data          0x0000000000000000        0x0 /usr/lib/gcc/arm-none-eabi/9.2.1/../../../arm-none-eabi/lib/thumb/v7e-m+fp/hard/libc.a(lib_a-findfp.o)
 .bss           0x0000000000000000        0x0 /usr/lib/gcc/arm-none-eabi/9.2.1/../../../arm-none-eabi/lib/thumb/v7e-m+fp/hard/libc.a(lib_a-findfp.o)
 .data          0x0000000000000000        0x0 /usr/lib/gcc/arm-none-eabi/9.2.1/../../../arm-none-eabi/lib/thumb/v7e-m+fp/hard/libc.a(lib_a-freer.o)
 .bss           0x0000000000000000        0x0 /usr/lib/gcc/arm-none-eabi/9.2.1/../../../arm-none-eabi/lib/thumb/v7e-m+fp/hard/libc.a(lib_a-freer.o)
 .data          0x0000000000000000        0x0 /usr/lib/gcc/arm-none-eabi/9.2.1/../../../arm-none-eabi/lib/thumb/v7e-m+fp/hard/libc.a(lib_a-fvwrite.o)
 .bss           0x0000000000000000        0x0 /usr/lib/gcc/arm-none-eabi/9.2.1/../../../arm-none-eabi/lib/thumb/v7e-m+fp/hard/libc.a(lib_a-fvwrite.o)
 .data          0x0000000000000000        0x0 /usr/lib/gcc/arm-none-eabi/9.2.1/../../../arm-none-eabi/lib/thumb/v7e-m+fp/hard/libc.a(lib_a-fwalk.o)
 .bss           0x0000000000000000        0x0 /usr/lib/gcc/arm-none-eabi/9.2.1/../../../arm-none-eabi/lib/thumb/v7e-m+fp/hard/libc.a(lib_a-fwalk.o)
 .text          0x0000000000000000        0x0 /usr/lib/gcc/arm-none-eabi/9.2.1/../../../arm-none-eabi/lib/thumb/v7e-m+fp/hard/libc.a(lib_a-impure.o)
 .bss           0x0000000000000000        0x0 /usr/lib/gcc/arm-none-eabi/9.2.1/../../../arm-none-eabi/lib/thumb/v7e-m+fp/hard/libc.a(lib_a-impure.o)
 .data          0x0000000000000000        0x0 /usr/lib/gcc/arm-none-eabi/9.2.1/../../../arm-none-eabi/lib/thumb/v7e-m+fp/hard/libc.a(lib_a-localeconv.o)
 .bss           0x0000000000000000        0x0 /usr/lib/gcc/arm-none-eabi/9.2.1/../../../arm-none-eabi/lib/thumb/v7e-m+fp/hard/libc.a(lib_a-localeconv.o)
 .data          0x0000000000000000        0x0 /usr/lib/gcc/arm-none-eabi/9.2.1/../../../arm-none-eabi/lib/thumb/v7e-m+fp/hard/libc.a(lib_a-makebuf.o)
 .bss           0x0000000000000000        0x0 /usr/lib/gcc/arm-none-eabi/9.2.1/../../../arm-none-eabi/lib/thumb/v7e-m+fp/hard/libc.a(lib_a-makebuf.o)
 .data          0x0000000000000000        0x0 /usr/lib/gcc/arm-none-eabi/9.2.1/../../../arm-none-eabi/lib/thumb/v7e-m+fp/hard/libc.a(lib_a-memchr.o)
 .bss           0x0000000000000000        0x0 /usr/lib/gcc/arm-none-eabi/9.2.1/../../../arm-none-eabi/lib/thumb/v7e-m+fp/hard/libc.a(lib_a-memchr.o)
 .data          0x0000000000000000        0x0 /usr/lib/gcc/arm-none-eabi/9.2.1/../../../arm-none-eabi/lib/thumb/v7e-m+fp/hard/libc.a(lib_a-memcpy.o)
 .bss           0x0000000000000000        0x0 /usr/lib/gcc/arm-none-eabi/9.2.1/../../../arm-none-eabi/lib/thumb/v7e-m+fp/hard/libc.a(lib_a-memcpy.o)
 .data          0x0000000000000000        0x0 /usr/lib/gcc/arm-none-eabi/9.2.1/../../../arm-none-eabi/lib/thumb/v7e-m+fp/hard/libc.a(lib_a-memmove.o)
 .bss           0x0000000000000000        0x0 /usr/lib/gcc/arm-none-eabi/9.2.1/../../../arm-none-eabi/lib/thumb/v7e-m+fp/hard/libc.a(lib_a-memmove.o)
 .data          0x0000000000000000        0x0 /usr/lib/gcc/arm-none-eabi/9.2.1/../../../arm-none-eabi/lib/thumb/v7e-m+fp/hard/libc.a(lib_a-memset.o)
 .bss           0x0000000000000000        0x0 /usr/lib/gcc/arm-none-eabi/9.2.1/../../../arm-none-eabi/lib/thumb/v7e-m+fp/hard/libc.a(lib_a-memset.o)
 .data          0x0000000000000000        0x0 /usr/lib/gcc/arm-none-eabi/9.2.1/../../../arm-none-eabi/lib/thumb/v7e-m+fp/hard/libc.a(lib_a-mlock.o)
 .bss           0x0000000000000000        0x0 /usr/lib/gcc/arm-none-eabi/9.2.1/../../../arm-none-eabi/lib/thumb/v7e-m+fp/hard/libc.a(lib_a-mlock.o)
 .data          0x0000000000000000        0x0 /usr/lib/gcc/arm-none-eabi/9.2.1/../../../arm-none-eabi/lib/thumb/v7e-m+fp/hard/libc.a(lib_a-mprec.o)
 .bss           0x0000000000000000        0x0 /usr/lib/gcc/arm-none-eabi/9.2.1/../../../arm-none-eabi/lib/thumb/v7e-m+fp/hard/libc.a(lib_a-mprec.o)
 .data          0x0000000000000000        0x0 /usr/lib/gcc/arm-none-eabi/9.2.1/../../../arm-none-eabi/lib/thumb/v7e-m+fp/hard/libc.a(lib_a-reallocr.o)
 .bss           0x0000000000000000        0x0 /usr/lib/gcc/arm-none-eabi/9.2.1/../../../arm-none-eabi/lib/thumb/v7e-m+fp/hard/libc.a(lib_a-reallocr.o)
 .data          0x0000000000000000        0x0 /usr/lib/gcc/arm-none-eabi/9.2.1/../../../arm-none-eabi/lib/thumb/v7e-m+fp/hard/libc.a(lib_a-sbrkr.o)
 .bss           0x0000000000000000        0x0 /usr/lib/gcc/arm-none-eabi/9.2.1/../../../arm-none-eabi/lib/thumb/v7e-m+fp/hard/libc.a(lib_a-sbrkr.o)
 .data          0x0000000000000000        0x0 /usr/lib/gcc/arm-none-eabi/9.2.1/../../../arm-none-eabi/lib/thumb/v7e-m+fp/hard/libc.a(lib_a-stdio.o)
 .bss           0x0000000000000000        0x0 /usr/lib/gcc/arm-none-eabi/9.2.1/../../../arm-none-eabi/lib/thumb/v7e-m+fp/hard/libc.a(lib_a-stdio.o)
 .data          0x0000000000000000        0x0 /usr/lib/gcc/arm-none-eabi/9.2.1/../../../arm-none-eabi/lib/thumb/v7e-m+fp/hard/libc.a(lib_a-vfiprintf.o)
 .bss           0x0000000000000000        0x0 /usr/lib/gcc/arm-none-eabi/9.2.1/../../../arm-none-eabi/lib/thumb/v7e-m+fp/hard/libc.a(lib_a-vfiprintf.o)
 .data          0x0000000000000000        0x0 /usr/lib/gcc/arm-none-eabi/9.2.1/../../../arm-none-eabi/lib/thumb/v7e-m+fp/hard/libc.a(lib_a-writer.o)
 .bss           0x0000000000000000        0x0 /usr/lib/gcc/arm-none-eabi/9.2.1/../../../arm-none-eabi/lib/thumb/v7e-m+fp/hard/libc.a(lib_a-writer.o)
 .data          0x0000000000000000        0x0 /usr/lib/gcc/arm-none-eabi/9.2.1/../../../arm-none-eabi/lib/thumb/v7e-m+fp/hard/libc.a(lib_a-assert.o)
 .bss           0x0000000000000000        0x0 /usr/lib/gcc/arm-none-eabi/9.2.1/../../../arm-none-eabi/lib/thumb/v7e-m+fp/hard/libc.a(lib_a-assert.o)
 .data          0x0000000000000000        0x0 /usr/lib/gcc/arm-none-eabi/9.2.1/../../../arm-none-eabi/lib/thumb/v7e-m+fp/hard/libc.a(lib_a-callocr.o)
 .bss           0x0000000000000000        0x0 /usr/lib/gcc/arm-none-eabi/9.2.1/../../../arm-none-eabi/lib/thumb/v7e-m+fp/hard/libc.a(lib_a-callocr.o)
 .data          0x0000000000000000        0x0 /usr/lib/gcc/arm-none-eabi/9.2.1/../../../arm-none-eabi/lib/thumb/v7e-m+fp/hard/libc.a(lib_a-closer.o)
 .bss           0x0000000000000000        0x0 /usr/lib/gcc/arm-none-eabi/9.2.1/../../../arm-none-eabi/lib/thumb/v7e-m+fp/hard/libc.a(lib_a-closer.o)
 .data          0x0000000000000000        0x0 /usr/lib/gcc/arm-none-eabi/9.2.1/../../../arm-none-eabi/lib/thumb/v7e-m+fp/hard/libc.a(lib_a-fclose.o)
 .bss           0x0000000000000000        0x0 /usr/lib/gcc/arm-none-eabi/9.2.1/../../../arm-none-eabi/lib/thumb/v7e-m+fp/hard/libc.a(lib_a-fclose.o)
 .data          0x0000000000000000        0x0 /usr/lib/gcc/arm-none-eabi/9.2.1/../../../arm-none-eabi/lib/thumb/v7e-m+fp/hard/libc.a(lib_a-fiprintf.o)
 .bss           0x0000000000000000        0x0 /usr/lib/gcc/arm-none-eabi/9.2.1/../../../arm-none-eabi/lib/thumb/v7e-m+fp/hard/libc.a(lib_a-fiprintf.o)
 .data          0x0000000000000000        0x0 /usr/lib/gcc/arm-none-eabi/9.2.1/../../../arm-none-eabi/lib/thumb/v7e-m+fp/hard/libc.a(lib_a-fputwc.o)
 .bss           0x0000000000000000        0x0 /usr/lib/gcc/arm-none-eabi/9.2.1/../../../arm-none-eabi/lib/thumb/v7e-m+fp/hard/libc.a(lib_a-fputwc.o)
 .data          0x0000000000000000        0x0 /usr/lib/gcc/arm-none-eabi/9.2.1/../../../arm-none-eabi/lib/thumb/v7e-m+fp/hard/libc.a(lib_a-fstatr.o)
 .bss           0x0000000000000000        0x0 /usr/lib/gcc/arm-none-eabi/9.2.1/../../../arm-none-eabi/lib/thumb/v7e-m+fp/hard/libc.a(lib_a-fstatr.o)
 .data          0x0000000000000000        0x0 /usr/lib/gcc/arm-none-eabi/9.2.1/../../../arm-none-eabi/lib/thumb/v7e-m+fp/hard/libc.a(lib_a-isattyr.o)
 .bss           0x0000000000000000        0x0 /usr/lib/gcc/arm-none-eabi/9.2.1/../../../arm-none-eabi/lib/thumb/v7e-m+fp/hard/libc.a(lib_a-isattyr.o)
 .bss           0x0000000000000000        0x4 /usr/lib/gcc/arm-none-eabi/9.2.1/../../../arm-none-eabi/lib/thumb/v7e-m+fp/hard/libc.a(lib_a-locale.o)
 .data          0x0000000000000000        0x0 /usr/lib/gcc/arm-none-eabi/9.2.1/../../../arm-none-eabi/lib/thumb/v7e-m+fp/hard/libc.a(lib_a-lseekr.o)
 .bss           0x0000000000000000        0x0 /usr/lib/gcc/arm-none-eabi/9.2.1/../../../arm-none-eabi/lib/thumb/v7e-m+fp/hard/libc.a(lib_a-lseekr.o)
 .data          0x0000000000000000        0x0 /usr/lib/gcc/arm-none-eabi/9.2.1/../../../arm-none-eabi/lib/thumb/v7e-m+fp/hard/libc.a(lib_a-mbtowc_r.o)
 .bss           0x0000000000000000        0x0 /usr/lib/gcc/arm-none-eabi/9.2.1/../../../arm-none-eabi/lib/thumb/v7e-m+fp/hard/libc.a(lib_a-mbtowc_r.o)
 .data          0x0000000000000000        0x0 /usr/lib/gcc/arm-none-eabi/9.2.1/../../../arm-none-eabi/lib/thumb/v7e-m+fp/hard/libc.a(lib_a-readr.o)
 .bss           0x0000000000000000        0x0 /usr/lib/gcc/arm-none-eabi/9.2.1/../../../arm-none-eabi/lib/thumb/v7e-m+fp/hard/libc.a(lib_a-readr.o)
 .text          0x0000000000000000       0xa4 /usr/lib/gcc/arm-none-eabi/9.2.1/../../../arm-none-eabi/lib/thumb/v7e-m+fp/hard/libc.a(lib_a-reent.o)
 .data          0x0000000000000000        0x0 /usr/lib/gcc/arm-none-eabi/9.2.1/../../../arm-none-eabi/lib/thumb/v7e-m+fp/hard/libc.a(lib_a-reent.o)
 .bss           0x0000000000000000        0x0 /usr/lib/gcc/arm-none-eabi/9.2.1/../../../arm-none-eabi/lib/thumb/v7e-m+fp/hard/libc.a(lib_a-reent.o)
 .data          0x0000000000000000        0x0 /usr/lib/gcc/arm-none-eabi/9.2.1/../../../arm-none-eabi/lib/thumb/v7e-m+fp/hard/libc.a(lib_a-strcmp.o)
 .bss           0x0000000000000000        0x0 /usr/lib/gcc/arm-none-eabi/9.2.1/../../../arm-none-eabi/lib/thumb/v7e-m+fp/hard/libc.a(lib_a-strcmp.o)
 .data          0x0000000000000000        0x0 /usr/lib/gcc/arm-none-eabi/9.2.1/../../../arm-none-eabi/lib/thumb/v7e-m+fp/hard/libc.a(lib_a-wbuf.o)
 .bss           0x0000000000000000        0x0 /usr/lib/gcc/arm-none-eabi/9.2.1/../../../arm-none-eabi/lib/thumb/v7e-m+fp/hard/libc.a(lib_a-wbuf.o)
 .data          0x0000000000000000        0x0 /usr/lib/gcc/arm-none-eabi/9.2.1/../../../arm-none-eabi/lib/thumb/v7e-m+fp/hard/libc.a(lib_a-wcrtomb.o)
 .bss           0x0000000000000000        0x0 /usr/lib/gcc/arm-none-eabi/9.2.1/../../../arm-none-eabi/lib/thumb/v7e-m+fp/hard/libc.a(lib_a-wcrtomb.o)
 .data          0x0000000000000000        0x0 /usr/lib/gcc/arm-none-eabi/9.2.1/../../../arm-none-eabi/lib/thumb/v7e-m+fp/hard/libc.a(lib_a-wctomb_r.o)
 .bss           0x0000000000000000        0x0 /usr/lib/gcc/arm-none-eabi/9.2.1/../../../arm-none-eabi/lib/thumb/v7e-m+fp/hard/libc.a(lib_a-wctomb_r.o)
 .data          0x0000000000000000        0x0 /usr/lib/gcc/arm-none-eabi/9.2.1/../../../arm-none-eabi/lib/thumb/v7e-m+fp/hard/libc.a(lib_a-abort.o)
 .bss           0x0000000000000000        0x0 /usr/lib/gcc/arm-none-eabi/9.2.1/../../../arm-none-eabi/lib/thumb/v7e-m+fp/hard/libc.a(lib_a-abort.o)
 .text          0x0000000000000000        0x0 /usr/lib/gcc/arm-none-eabi/9.2.1/../../../arm-none-eabi/lib/thumb/v7e-m+fp/hard/libc.a(lib_a-ctype_.o)
 .data          0x0000000000000000        0x0 /usr/lib/gcc/arm-none-eabi/9.2.1/../../../arm-none-eabi/lib/thumb/v7e-m+fp/hard/libc.a(lib_a-ctype_.o)
 .bss           0x0000000000000000        0x0 /usr/lib/gcc/arm-none-eabi/9.2.1/../../../arm-none-eabi/lib/thumb/v7e-m+fp/hard/libc.a(lib_a-ctype_.o)
 .data          0x0000000000000000        0x0 /usr/lib/gcc/arm-none-eabi/9.2.1/../../../arm-none-eabi/lib/thumb/v7e-m+fp/hard/libc.a(lib_a-signal.o)
 .bss           0x0000000000000000        0x0 /usr/lib/gcc/arm-none-eabi/9.2.1/../../../arm-none-eabi/lib/thumb/v7e-m+fp/hard/libc.a(lib_a-signal.o)
 .data          0x0000000000000000        0x0 /usr/lib/gcc/arm-none-eabi/9.2.1/../../../arm-none-eabi/lib/thumb/v7e-m+fp/hard/libc.a(lib_a-signalr.o)
 .bss           0x0000000000000000        0x0 /usr/lib/gcc/arm-none-eabi/9.2.1/../../../arm-none-eabi/lib/thumb/v7e-m+fp/hard/libc.a(lib_a-signalr.o)
 .text          0x0000000000000000      0x254 /usr/lib/gcc/arm-none-eabi/9.2.1/thumb/v7e-m+fp/hard/libgcc.a(_arm_muldf3.o)
 .data          0x0000000000000000        0x0 /usr/lib/gcc/arm-none-eabi/9.2.1/thumb/v7e-m+fp/hard/libgcc.a(_arm_muldf3.o)
 .bss           0x0000000000000000        0x0 /usr/lib/gcc/arm-none-eabi/9.2.1/thumb/v7e-m+fp/hard/libgcc.a(_arm_muldf3.o)
 .debug_line    0x0000000000000000      0x10c /usr/lib/gcc/arm-none-eabi/9.2.1/thumb/v7e-m+fp/hard/libgcc.a(_arm_muldf3.o)
 .debug_info    0x0000000000000000       0x26 /usr/lib/gcc/arm-none-eabi/9.2.1/thumb/v7e-m+fp/hard/libgcc.a(_arm_muldf3.o)
 .debug_abbrev  0x0000000000000000       0x14 /usr/lib/gcc/arm-none-eabi/9.2.1/thumb/v7e-m+fp/hard/libgcc.a(_arm_muldf3.o)
 .debug_aranges
                0x0000000000000000       0x20 /usr/lib/gcc/arm-none-eabi/9.2.1/thumb/v7e-m+fp/hard/libgcc.a(_arm_muldf3.o)
 .debug_str     0x0000000000000000       0xa8 /usr/lib/gcc/arm-none-eabi/9.2.1/thumb/v7e-m+fp/hard/libgcc.a(_arm_muldf3.o)
 .debug_frame   0x0000000000000000       0x30 /usr/lib/gcc/arm-none-eabi/9.2.1/thumb/v7e-m+fp/hard/libgcc.a(_arm_muldf3.o)
 .ARM.attributes
                0x0000000000000000       0x1e /usr/lib/gcc/arm-none-eabi/9.2.1/thumb/v7e-m+fp/hard/libgcc.a(_arm_muldf3.o)
 .data          0x0000000000000000        0x0 /usr/lib/gcc/arm-none-eabi/9.2.1/thumb/v7e-m+fp/hard/libgcc.a(_arm_addsubdf3.o)
 .bss           0x0000000000000000        0x0 /usr/lib/gcc/arm-none-eabi/9.2.1/thumb/v7e-m+fp/hard/libgcc.a(_arm_addsubdf3.o)
 .data          0x0000000000000000        0x0 /usr/lib/gcc/arm-none-eabi/9.2.1/thumb/v7e-m+fp/hard/libgcc.a(_arm_muldivdf3.o)
 .bss           0x0000000000000000        0x0 /usr/lib/gcc/arm-none-eabi/9.2.1/thumb/v7e-m+fp/hard/libgcc.a(_arm_muldivdf3.o)
 .data          0x0000000000000000        0x0 /usr/lib/gcc/arm-none-eabi/9.2.1/thumb/v7e-m+fp/hard/libgcc.a(_arm_cmpdf2.o)
 .bss           0x0000000000000000        0x0 /usr/lib/gcc/arm-none-eabi/9.2.1/thumb/v7e-m+fp/hard/libgcc.a(_arm_cmpdf2.o)
 .data          0x0000000000000000        0x0 /usr/lib/gcc/arm-none-eabi/9.2.1/thumb/v7e-m+fp/hard/libgcc.a(_arm_unorddf2.o)
 .bss           0x0000000000000000        0x0 /usr/lib/gcc/arm-none-eabi/9.2.1/thumb/v7e-m+fp/hard/libgcc.a(_arm_unorddf2.o)
 .data          0x0000000000000000        0x0 /usr/lib/gcc/arm-none-eabi/9.2.1/thumb/v7e-m+fp/hard/libgcc.a(_arm_fixdfsi.o)
 .bss           0x0000000000000000        0x0 /usr/lib/gcc/arm-none-eabi/9.2.1/thumb/v7e-m+fp/hard/libgcc.a(_arm_fixdfsi.o)
 .data          0x0000000000000000        0x0 /usr/lib/gcc/arm-none-eabi/9.2.1/thumb/v7e-m+fp/hard/libgcc.a(_aeabi_uldivmod.o)
 .bss           0x0000000000000000        0x0 /usr/lib/gcc/arm-none-eabi/9.2.1/thumb/v7e-m+fp/hard/libgcc.a(_aeabi_uldivmod.o)
 .data          0x0000000000000000        0x0 /usr/lib/gcc/arm-none-eabi/9.2.1/thumb/v7e-m+fp/hard/libgcc.a(_udivmoddi4.o)
 .bss           0x0000000000000000        0x0 /usr/lib/gcc/arm-none-eabi/9.2.1/thumb/v7e-m+fp/hard/libgcc.a(_udivmoddi4.o)
 .ARM.extab     0x0000000000000000        0x0 /usr/lib/gcc/arm-none-eabi/9.2.1/thumb/v7e-m+fp/hard/libgcc.a(_udivmoddi4.o)
 .data          0x0000000000000000        0x0 /usr/lib/gcc/arm-none-eabi/9.2.1/thumb/v7e-m+fp/hard/libgcc.a(_dvmd_tls.o)
 .bss           0x0000000000000000        0x0 /usr/lib/gcc/arm-none-eabi/9.2.1/thumb/v7e-m+fp/hard/libgcc.a(_dvmd_tls.o)
 .data          0x0000000000000000        0x0 /usr/lib/gcc/arm-none-eabi/9.2.1/../../../arm-none-eabi/lib/thumb/v7e-m+fp/hard/libnosys.a(close.o)
 .bss           0x0000000000000000        0x0 /usr/lib/gcc/arm-none-eabi/9.2.1/../../../arm-none-eabi/lib/thumb/v7e-m+fp/hard/libnosys.a(close.o)
 .data          0x0000000000000000        0x0 /usr/lib/gcc/arm-none-eabi/9.2.1/../../../arm-none-eabi/lib/thumb/v7e-m+fp/hard/libnosys.a(fstat.o)
 .bss           0x0000000000000000        0x0 /usr/lib/gcc/arm-none-eabi/9.2.1/../../../arm-none-eabi/lib/thumb/v7e-m+fp/hard/libnosys.a(fstat.o)
 .data          0x0000000000000000        0x0 /usr/lib/gcc/arm-none-eabi/9.2.1/../../../arm-none-eabi/lib/thumb/v7e-m+fp/hard/libnosys.a(getpid.o)
 .bss           0x0000000000000000        0x0 /usr/lib/gcc/arm-none-eabi/9.2.1/../../../arm-none-eabi/lib/thumb/v7e-m+fp/hard/libnosys.a(getpid.o)
 .data          0x0000000000000000        0x0 /usr/lib/gcc/arm-none-eabi/9.2.1/../../../arm-none-eabi/lib/thumb/v7e-m+fp/hard/libnosys.a(isatty.o)
 .bss           0x0000000000000000        0x0 /usr/lib/gcc/arm-none-eabi/9.2.1/../../../arm-none-eabi/lib/thumb/v7e-m+fp/hard/libnosys.a(isatty.o)
 .data          0x0000000000000000        0x0 /usr/lib/gcc/arm-none-eabi/9.2.1/../../../arm-none-eabi/lib/thumb/v7e-m+fp/hard/libnosys.a(kill.o)
 .bss           0x0000000000000000        0x0 /usr/lib/gcc/arm-none-eabi/9.2.1/../../../arm-none-eabi/lib/thumb/v7e-m+fp/hard/libnosys.a(kill.o)
 .data          0x0000000000000000        0x0 /usr/lib/gcc/arm-none-eabi/9.2.1/../../../arm-none-eabi/lib/thumb/v7e-m+fp/hard/libnosys.a(lseek.o)
 .bss           0x0000000000000000        0x0 /usr/lib/gcc/arm-none-eabi/9.2.1/../../../arm-none-eabi/lib/thumb/v7e-m+fp/hard/libnosys.a(lseek.o)
 .data          0x0000000000000000        0x0 /usr/lib/gcc/arm-none-eabi/9.2.1/../../../arm-none-eabi/lib/thumb/v7e-m+fp/hard/libnosys.a(read.o)
 .bss           0x0000000000000000        0x0 /usr/lib/gcc/arm-none-eabi/9.2.1/../../../arm-none-eabi/lib/thumb/v7e-m+fp/hard/libnosys.a(read.o)
 .data          0x0000000000000000        0x0 /usr/lib/gcc/arm-none-eabi/9.2.1/../../../arm-none-eabi/lib/thumb/v7e-m+fp/hard/libnosys.a(sbrk.o)
 .data          0x0000000000000000        0x0 /usr/lib/gcc/arm-none-eabi/9.2.1/../../../arm-none-eabi/lib/thumb/v7e-m+fp/hard/libnosys.a(_exit.o)
 .bss           0x0000000000000000        0x0 /usr/lib/gcc/arm-none-eabi/9.2.1/../../../arm-none-eabi/lib/thumb/v7e-m+fp/hard/libnosys.a(_exit.o)

Memory Configuration

Name             Origin             Length             Attributes
rom              0x0000000008000000 0x0000000000200000 xr
ccm              0x0000000010000000 0x0000000000010000 xrw
ram              0x0000000020000000 0x0000000000030000 xrw
*default*        0x0000000000000000 0xffffffffffffffff

Linker script and memory map

LOAD sdram.o
LOAD lcd.o
LOAD clock.o
LOAD labo4.o
LOAD /home/juan/Documents/VIII_Semestre/Labo_Micros/Labos_con_Luisja/Laboratorio_Microcontroladores/Laboratorio_4/src/libopencm3-examples/libopencm3/lib/libopencm3_stm32f4.a
START GROUP
LOAD /usr/lib/gcc/arm-none-eabi/9.2.1/../../../arm-none-eabi/lib/thumb/v7e-m+fp/hard/libc.a
LOAD /usr/lib/gcc/arm-none-eabi/9.2.1/thumb/v7e-m+fp/hard/libgcc.a
LOAD /usr/lib/gcc/arm-none-eabi/9.2.1/../../../arm-none-eabi/lib/thumb/v7e-m+fp/hard/libnosys.a
END GROUP
START GROUP
LOAD /usr/lib/gcc/arm-none-eabi/9.2.1/thumb/v7e-m+fp/hard/libgcc.a
LOAD /usr/lib/gcc/arm-none-eabi/9.2.1/../../../arm-none-eabi/lib/thumb/v7e-m+fp/hard/libg.a
LOAD /usr/lib/gcc/arm-none-eabi/9.2.1/../../../arm-none-eabi/lib/thumb/v7e-m+fp/hard/libc.a
END GROUP

.text           0x0000000008000000     0x7f68
 *(.vectors)
 .vectors       0x0000000008000000      0x1ac /home/juan/Documents/VIII_Semestre/Labo_Micros/Labos_con_Luisja/Laboratorio_Microcontroladores/Laboratorio_4/src/libopencm3-examples/libopencm3/lib/libopencm3_stm32f4.a(vector.o)
                0x0000000008000000                vector_table
 *(.text*)
 .text.sdram_init
                0x00000000080001ac       0xfc sdram.o
                0x00000000080001ac                sdram_init
 .text.lcd_command
                0x00000000080002a8       0x64 lcd.o
 .text.lcd_draw_pixel
                0x000000000800030c       0x30 lcd.o
                0x000000000800030c                lcd_draw_pixel
 .text.lcd_show_frame
                0x000000000800033c       0x50 lcd.o
                0x000000000800033c                lcd_show_frame
 .text.lcd_init
                0x000000000800038c       0xf0 lcd.o
                0x000000000800038c                lcd_init
 .text.clock_setup
                0x000000000800047c       0x3c clock.o
                0x000000000800047c                clock_setup
 .text.sys_tick_handler
                0x00000000080004b8       0x20 clock.o
                0x00000000080004b8                sys_tick_handler
 .text.msleep   0x00000000080004d8       0x10 clock.o
                0x00000000080004d8                msleep
 .text.mandel   0x00000000080004e8       0xb4 labo4.o
                0x00000000080004e8                mandel
 .text.startup.main
                0x000000000800059c      0x10c labo4.o
                0x000000000800059c                main
 .text.uart_putc
                0x00000000080006a8       0x18 labo4.o
                0x00000000080006a8                uart_putc
 .text._write   0x00000000080006c0       0x34 labo4.o
                0x00000000080006c0                _write
 .text.sdram_timing
                0x00000000080006f4       0x4e /home/juan/Documents/VIII_Semestre/Labo_Micros/Labos_con_Luisja/Laboratorio_Microcontroladores/Laboratorio_4/src/libopencm3-examples/libopencm3/lib/libopencm3_stm32f4.a(fmc_common_f47.o)
                0x00000000080006f4                sdram_timing
 *fill*         0x0000000008000742        0x2 
 .text.sdram_command
                0x0000000008000744       0x64 /home/juan/Documents/VIII_Semestre/Labo_Micros/Labos_con_Luisja/Laboratorio_Microcontroladores/Laboratorio_4/src/libopencm3-examples/libopencm3/lib/libopencm3_stm32f4.a(fmc_common_f47.o)
                0x0000000008000744                sdram_command
 .text.gpio_set
                0x00000000080007a8        0x4 /home/juan/Documents/VIII_Semestre/Labo_Micros/Labos_con_Luisja/Laboratorio_Microcontroladores/Laboratorio_4/src/libopencm3-examples/libopencm3/lib/libopencm3_stm32f4.a(gpio_common_all.o)
                0x00000000080007a8                gpio_set
 .text.gpio_clear
                0x00000000080007ac        0x6 /home/juan/Documents/VIII_Semestre/Labo_Micros/Labos_con_Luisja/Laboratorio_Microcontroladores/Laboratorio_4/src/libopencm3-examples/libopencm3/lib/libopencm3_stm32f4.a(gpio_common_all.o)
                0x00000000080007ac                gpio_clear
 .text.gpio_toggle
                0x00000000080007b2       0x12 /home/juan/Documents/VIII_Semestre/Labo_Micros/Labos_con_Luisja/Laboratorio_Microcontroladores/Laboratorio_4/src/libopencm3-examples/libopencm3/lib/libopencm3_stm32f4.a(gpio_common_all.o)
                0x00000000080007b2                gpio_toggle
 .text.gpio_mode_setup
                0x00000000080007c4       0x40 /home/juan/Documents/VIII_Semestre/Labo_Micros/Labos_con_Luisja/Laboratorio_Microcontroladores/Laboratorio_4/src/libopencm3-examples/libopencm3/lib/libopencm3_stm32f4.a(gpio_common_f0234.o)
                0x00000000080007c4                gpio_mode_setup
 .text.gpio_set_output_options
                0x0000000008000804       0x36 /home/juan/Documents/VIII_Semestre/Labo_Micros/Labos_con_Luisja/Laboratorio_Microcontroladores/Laboratorio_4/src/libopencm3-examples/libopencm3/lib/libopencm3_stm32f4.a(gpio_common_f0234.o)
                0x0000000008000804                gpio_set_output_options
 .text.gpio_set_af
                0x000000000800083a       0x54 /home/juan/Documents/VIII_Semestre/Labo_Micros/Labos_con_Luisja/Laboratorio_Microcontroladores/Laboratorio_4/src/libopencm3-examples/libopencm3/lib/libopencm3_stm32f4.a(gpio_common_f0234.o)
                0x000000000800083a                gpio_set_af
 .text.rcc_periph_clock_enable
                0x000000000800088e       0x1c /home/juan/Documents/VIII_Semestre/Labo_Micros/Labos_con_Luisja/Laboratorio_Microcontroladores/Laboratorio_4/src/libopencm3-examples/libopencm3/lib/libopencm3_stm32f4.a(rcc_common_all.o)
                0x000000000800088e                rcc_periph_clock_enable
 *fill*         0x00000000080008aa        0x2 
 .text.rcc_is_osc_ready
                0x00000000080008ac       0x5c /home/juan/Documents/VIII_Semestre/Labo_Micros/Labos_con_Luisja/Laboratorio_Microcontroladores/Laboratorio_4/src/libopencm3-examples/libopencm3/lib/libopencm3_stm32f4.a(rcc.o)
                0x00000000080008ac                rcc_is_osc_ready
 .text.rcc_wait_for_osc_ready
                0x0000000008000908       0x10 /home/juan/Documents/VIII_Semestre/Labo_Micros/Labos_con_Luisja/Laboratorio_Microcontroladores/Laboratorio_4/src/libopencm3-examples/libopencm3/lib/libopencm3_stm32f4.a(rcc.o)
                0x0000000008000908                rcc_wait_for_osc_ready
 .text.rcc_osc_on
                0x0000000008000918       0x58 /home/juan/Documents/VIII_Semestre/Labo_Micros/Labos_con_Luisja/Laboratorio_Microcontroladores/Laboratorio_4/src/libopencm3-examples/libopencm3/lib/libopencm3_stm32f4.a(rcc.o)
                0x0000000008000918                rcc_osc_on
 .text.rcc_osc_off
                0x0000000008000970       0x58 /home/juan/Documents/VIII_Semestre/Labo_Micros/Labos_con_Luisja/Laboratorio_Microcontroladores/Laboratorio_4/src/libopencm3-examples/libopencm3/lib/libopencm3_stm32f4.a(rcc.o)
                0x0000000008000970                rcc_osc_off
 .text.rcc_set_sysclk_source
                0x00000000080009c8       0x14 /home/juan/Documents/VIII_Semestre/Labo_Micros/Labos_con_Luisja/Laboratorio_Microcontroladores/Laboratorio_4/src/libopencm3-examples/libopencm3/lib/libopencm3_stm32f4.a(rcc.o)
                0x00000000080009c8                rcc_set_sysclk_source
 .text.rcc_set_ppre2
                0x00000000080009dc       0x14 /home/juan/Documents/VIII_Semestre/Labo_Micros/Labos_con_Luisja/Laboratorio_Microcontroladores/Laboratorio_4/src/libopencm3-examples/libopencm3/lib/libopencm3_stm32f4.a(rcc.o)
                0x00000000080009dc                rcc_set_ppre2
 .text.rcc_set_ppre1
                0x00000000080009f0       0x14 /home/juan/Documents/VIII_Semestre/Labo_Micros/Labos_con_Luisja/Laboratorio_Microcontroladores/Laboratorio_4/src/libopencm3-examples/libopencm3/lib/libopencm3_stm32f4.a(rcc.o)
                0x00000000080009f0                rcc_set_ppre1
 .text.rcc_set_hpre
                0x0000000008000a04       0x14 /home/juan/Documents/VIII_Semestre/Labo_Micros/Labos_con_Luisja/Laboratorio_Microcontroladores/Laboratorio_4/src/libopencm3-examples/libopencm3/lib/libopencm3_stm32f4.a(rcc.o)
                0x0000000008000a04                rcc_set_hpre
 .text.rcc_set_main_pll_hsi
                0x0000000008000a18       0x44 /home/juan/Documents/VIII_Semestre/Labo_Micros/Labos_con_Luisja/Laboratorio_Microcontroladores/Laboratorio_4/src/libopencm3-examples/libopencm3/lib/libopencm3_stm32f4.a(rcc.o)
                0x0000000008000a18                rcc_set_main_pll_hsi
 .text.rcc_set_main_pll_hse
                0x0000000008000a5c       0x44 /home/juan/Documents/VIII_Semestre/Labo_Micros/Labos_con_Luisja/Laboratorio_Microcontroladores/Laboratorio_4/src/libopencm3-examples/libopencm3/lib/libopencm3_stm32f4.a(rcc.o)
                0x0000000008000a5c                rcc_set_main_pll_hse
 .text.rcc_clock_setup_pll
                0x0000000008000aa0       0xf4 /home/juan/Documents/VIII_Semestre/Labo_Micros/Labos_con_Luisja/Laboratorio_Microcontroladores/Laboratorio_4/src/libopencm3-examples/libopencm3/lib/libopencm3_stm32f4.a(rcc.o)
                0x0000000008000aa0                rcc_clock_setup_pll
 .text.spi_enable
                0x0000000008000b94        0xa /home/juan/Documents/VIII_Semestre/Labo_Micros/Labos_con_Luisja/Laboratorio_Microcontroladores/Laboratorio_4/src/libopencm3-examples/libopencm3/lib/libopencm3_stm32f4.a(spi_common_all.o)
                0x0000000008000b94                spi_enable
 .text.spi_xfer
                0x0000000008000b9e        0xe /home/juan/Documents/VIII_Semestre/Labo_Micros/Labos_con_Luisja/Laboratorio_Microcontroladores/Laboratorio_4/src/libopencm3-examples/libopencm3/lib/libopencm3_stm32f4.a(spi_common_all.o)
                0x0000000008000b9e                spi_xfer
 .text.spi_enable_ss_output
                0x0000000008000bac        0xa /home/juan/Documents/VIII_Semestre/Labo_Micros/Labos_con_Luisja/Laboratorio_Microcontroladores/Laboratorio_4/src/libopencm3-examples/libopencm3/lib/libopencm3_stm32f4.a(spi_common_all.o)
                0x0000000008000bac                spi_enable_ss_output
 .text.spi_init_master
                0x0000000008000bb6       0x28 /home/juan/Documents/VIII_Semestre/Labo_Micros/Labos_con_Luisja/Laboratorio_Microcontroladores/Laboratorio_4/src/libopencm3-examples/libopencm3/lib/libopencm3_stm32f4.a(spi_common_v1.o)
                0x0000000008000bb6                spi_init_master
 *fill*         0x0000000008000bde        0x2 
 .text.usart_set_baudrate
                0x0000000008000be0       0x2c /home/juan/Documents/VIII_Semestre/Labo_Micros/Labos_con_Luisja/Laboratorio_Microcontroladores/Laboratorio_4/src/libopencm3-examples/libopencm3/lib/libopencm3_stm32f4.a(usart_common_all.o)
                0x0000000008000be0                usart_set_baudrate
 .text.usart_set_databits
                0x0000000008000c0c       0x12 /home/juan/Documents/VIII_Semestre/Labo_Micros/Labos_con_Luisja/Laboratorio_Microcontroladores/Laboratorio_4/src/libopencm3-examples/libopencm3/lib/libopencm3_stm32f4.a(usart_common_all.o)
                0x0000000008000c0c                usart_set_databits
 .text.usart_set_stopbits
                0x0000000008000c1e        0xc /home/juan/Documents/VIII_Semestre/Labo_Micros/Labos_con_Luisja/Laboratorio_Microcontroladores/Laboratorio_4/src/libopencm3-examples/libopencm3/lib/libopencm3_stm32f4.a(usart_common_all.o)
                0x0000000008000c1e                usart_set_stopbits
 .text.usart_set_parity
                0x0000000008000c2a        0xc /home/juan/Documents/VIII_Semestre/Labo_Micros/Labos_con_Luisja/Laboratorio_Microcontroladores/Laboratorio_4/src/libopencm3-examples/libopencm3/lib/libopencm3_stm32f4.a(usart_common_all.o)
                0x0000000008000c2a                usart_set_parity
 .text.usart_set_mode
                0x0000000008000c36        0xc /home/juan/Documents/VIII_Semestre/Labo_Micros/Labos_con_Luisja/Laboratorio_Microcontroladores/Laboratorio_4/src/libopencm3-examples/libopencm3/lib/libopencm3_stm32f4.a(usart_common_all.o)
                0x0000000008000c36                usart_set_mode
 .text.usart_set_flow_control
                0x0000000008000c42        0xc /home/juan/Documents/VIII_Semestre/Labo_Micros/Labos_con_Luisja/Laboratorio_Microcontroladores/Laboratorio_4/src/libopencm3-examples/libopencm3/lib/libopencm3_stm32f4.a(usart_common_all.o)
                0x0000000008000c42                usart_set_flow_control
 .text.usart_enable
                0x0000000008000c4e        0xa /home/juan/Documents/VIII_Semestre/Labo_Micros/Labos_con_Luisja/Laboratorio_Microcontroladores/Laboratorio_4/src/libopencm3-examples/libopencm3/lib/libopencm3_stm32f4.a(usart_common_all.o)
                0x0000000008000c4e                usart_enable
 .text.blocking_handler
                0x0000000008000c58        0x2 /home/juan/Documents/VIII_Semestre/Labo_Micros/Labos_con_Luisja/Laboratorio_Microcontroladores/Laboratorio_4/src/libopencm3-examples/libopencm3/lib/libopencm3_stm32f4.a(vector.o)
                0x0000000008000c58                dma2_stream1_isr
                0x0000000008000c58                tim8_brk_tim12_isr
                0x0000000008000c58                dma1_stream7_isr
                0x0000000008000c58                usart3_isr
                0x0000000008000c58                tim7_isr
                0x0000000008000c58                dma2d_isr
                0x0000000008000c58                uart8_isr
                0x0000000008000c58                dma1_stream2_isr
                0x0000000008000c58                otg_hs_isr
                0x0000000008000c58                blocking_handler
                0x0000000008000c58                tim5_isr
                0x0000000008000c58                rtc_wkup_isr
                0x0000000008000c58                otg_fs_isr
                0x0000000008000c58                spi1_isr
                0x0000000008000c58                i2c3_er_isr
                0x0000000008000c58                exti2_isr
                0x0000000008000c58                spi5_isr
                0x0000000008000c58                usb_fs_wkup_isr
                0x0000000008000c58                tamp_stamp_isr
                0x0000000008000c58                can1_rx1_isr
                0x0000000008000c58                dma2_stream0_isr
                0x0000000008000c58                usart1_isr
                0x0000000008000c58                i2c3_ev_isr
                0x0000000008000c58                usage_fault_handler
                0x0000000008000c58                can2_rx0_isr
                0x0000000008000c58                dma1_stream6_isr
                0x0000000008000c58                can2_rx1_isr
                0x0000000008000c58                can1_sce_isr
                0x0000000008000c58                tim1_cc_isr
                0x0000000008000c58                can1_tx_isr
                0x0000000008000c58                tim1_up_tim10_isr
                0x0000000008000c58                sdio_isr
                0x0000000008000c58                eth_isr
                0x0000000008000c58                spi6_isr
                0x0000000008000c58                dma2_stream5_isr
                0x0000000008000c58                pvd_isr
                0x0000000008000c58                can1_rx0_isr
                0x0000000008000c58                rcc_isr
                0x0000000008000c58                dma2_stream3_isr
                0x0000000008000c58                flash_isr
                0x0000000008000c58                uart4_isr
                0x0000000008000c58                lcd_tft_isr
                0x0000000008000c58                rtc_alarm_isr
                0x0000000008000c58                exti15_10_isr
                0x0000000008000c58                hash_rng_isr
                0x0000000008000c58                tim1_trg_com_tim11_isr
                0x0000000008000c58                hard_fault_handler
                0x0000000008000c58                exti1_isr
                0x0000000008000c58                i2c1_ev_isr
                0x0000000008000c58                usart6_isr
                0x0000000008000c58                spi2_isr
                0x0000000008000c58                cryp_isr
                0x0000000008000c58                nvic_wwdg_isr
                0x0000000008000c58                dma1_stream1_isr
                0x0000000008000c58                dma2_stream4_isr
                0x0000000008000c58                exti3_isr
                0x0000000008000c58                tim3_isr
                0x0000000008000c58                usart2_isr
                0x0000000008000c58                sai1_isr
                0x0000000008000c58                fpu_isr
                0x0000000008000c58                dma1_stream4_isr
                0x0000000008000c58                i2c2_er_isr
                0x0000000008000c58                i2c2_ev_isr
                0x0000000008000c58                uart5_isr
                0x0000000008000c58                dma2_stream6_isr
                0x0000000008000c58                spi4_isr
                0x0000000008000c58                adc_isr
                0x0000000008000c58                dma2_stream7_isr
                0x0000000008000c58                tim8_up_tim13_isr
                0x0000000008000c58                fsmc_isr
                0x0000000008000c58                exti4_isr
                0x0000000008000c58                tim6_dac_isr
                0x0000000008000c58                dma1_stream3_isr
                0x0000000008000c58                tim8_trg_com_tim14_isr
                0x0000000008000c58                mem_manage_handler
                0x0000000008000c58                lcd_tft_err_isr
                0x0000000008000c58                can2_tx_isr
                0x0000000008000c58                exti9_5_isr
                0x0000000008000c58                tim1_brk_tim9_isr
                0x0000000008000c58                uart7_isr
                0x0000000008000c58                can2_sce_isr
                0x0000000008000c58                tim4_isr
                0x0000000008000c58                otg_hs_wkup_isr
                0x0000000008000c58                i2c1_er_isr
                0x0000000008000c58                dma1_stream0_isr
                0x0000000008000c58                tim8_cc_isr
                0x0000000008000c58                dcmi_isr
                0x0000000008000c58                dma2_stream2_isr
                0x0000000008000c58                eth_wkup_isr
                0x0000000008000c58                bus_fault_handler
                0x0000000008000c58                otg_hs_ep1_out_isr
                0x0000000008000c58                spi3_isr
                0x0000000008000c58                dma1_stream5_isr
                0x0000000008000c58                otg_hs_ep1_in_isr
                0x0000000008000c58                tim2_isr
                0x0000000008000c58                exti0_isr
 .text.null_handler
                0x0000000008000c5a        0x2 /home/juan/Documents/VIII_Semestre/Labo_Micros/Labos_con_Luisja/Laboratorio_Microcontroladores/Laboratorio_4/src/libopencm3-examples/libopencm3/lib/libopencm3_stm32f4.a(vector.o)
                0x0000000008000c5a                null_handler
                0x0000000008000c5a                sv_call_handler
                0x0000000008000c5a                pend_sv_handler
                0x0000000008000c5a                debug_monitor_handler
                0x0000000008000c5a                nmi_handler
 .text.reset_handler
                0x0000000008000c5c       0x98 /home/juan/Documents/VIII_Semestre/Labo_Micros/Labos_con_Luisja/Laboratorio_Microcontroladores/Laboratorio_4/src/libopencm3-examples/libopencm3/lib/libopencm3_stm32f4.a(vector.o)
                0x0000000008000c5c                reset_handler
 .text.systick_set_reload
                0x0000000008000cf4       0x10 /home/juan/Documents/VIII_Semestre/Labo_Micros/Labos_con_Luisja/Laboratorio_Microcontroladores/Laboratorio_4/src/libopencm3-examples/libopencm3/lib/libopencm3_stm32f4.a(systick.o)
                0x0000000008000cf4                systick_set_reload
 .text.systick_set_clocksource
                0x0000000008000d04       0x18 /home/juan/Documents/VIII_Semestre/Labo_Micros/Labos_con_Luisja/Laboratorio_Microcontroladores/Laboratorio_4/src/libopencm3-examples/libopencm3/lib/libopencm3_stm32f4.a(systick.o)
                0x0000000008000d04                systick_set_clocksource
 .text.systick_interrupt_enable
                0x0000000008000d1c       0x10 /home/juan/Documents/VIII_Semestre/Labo_Micros/Labos_con_Luisja/Laboratorio_Microcontroladores/Laboratorio_4/src/libopencm3-examples/libopencm3/lib/libopencm3_stm32f4.a(systick.o)
                0x0000000008000d1c                systick_interrupt_enable
 .text.systick_counter_enable
                0x0000000008000d2c       0x10 /home/juan/Documents/VIII_Semestre/Labo_Micros/Labos_con_Luisja/Laboratorio_Microcontroladores/Laboratorio_4/src/libopencm3-examples/libopencm3/lib/libopencm3_stm32f4.a(systick.o)
                0x0000000008000d2c                systick_counter_enable
 .text.flash_set_ws
                0x0000000008000d3c       0x14 /home/juan/Documents/VIII_Semestre/Labo_Micros/Labos_con_Luisja/Laboratorio_Microcontroladores/Laboratorio_4/src/libopencm3-examples/libopencm3/lib/libopencm3_stm32f4.a(flash_common_all.o)
                0x0000000008000d3c                flash_set_ws
 .text.flash_dcache_enable
                0x0000000008000d50       0x10 /home/juan/Documents/VIII_Semestre/Labo_Micros/Labos_con_Luisja/Laboratorio_Microcontroladores/Laboratorio_4/src/libopencm3-examples/libopencm3/lib/libopencm3_stm32f4.a(flash_common_idcache.o)
                0x0000000008000d50                flash_dcache_enable
 .text.flash_dcache_disable
                0x0000000008000d60       0x10 /home/juan/Documents/VIII_Semestre/Labo_Micros/Labos_con_Luisja/Laboratorio_Microcontroladores/Laboratorio_4/src/libopencm3-examples/libopencm3/lib/libopencm3_stm32f4.a(flash_common_idcache.o)
                0x0000000008000d60                flash_dcache_disable
 .text.flash_icache_enable
                0x0000000008000d70       0x10 /home/juan/Documents/VIII_Semestre/Labo_Micros/Labos_con_Luisja/Laboratorio_Microcontroladores/Laboratorio_4/src/libopencm3-examples/libopencm3/lib/libopencm3_stm32f4.a(flash_common_idcache.o)
                0x0000000008000d70                flash_icache_enable
 .text.flash_icache_disable
                0x0000000008000d80       0x10 /home/juan/Documents/VIII_Semestre/Labo_Micros/Labos_con_Luisja/Laboratorio_Microcontroladores/Laboratorio_4/src/libopencm3-examples/libopencm3/lib/libopencm3_stm32f4.a(flash_common_idcache.o)
                0x0000000008000d80                flash_icache_disable
 .text.pwr_set_vos_scale
                0x0000000008000d90       0x18 /home/juan/Documents/VIII_Semestre/Labo_Micros/Labos_con_Luisja/Laboratorio_Microcontroladores/Laboratorio_4/src/libopencm3-examples/libopencm3/lib/libopencm3_stm32f4.a(pwr.o)
                0x0000000008000d90                pwr_set_vos_scale
 .text          0x0000000008000da8       0x48 /usr/lib/gcc/arm-none-eabi/9.2.1/../../../arm-none-eabi/lib/thumb/v7e-m+fp/hard/libc.a(lib_a-printf.o)
                0x0000000008000da8                _printf_r
                0x0000000008000dc8                printf
 .text          0x0000000008000df0       0x78 /usr/lib/gcc/arm-none-eabi/9.2.1/../../../arm-none-eabi/lib/thumb/v7e-m+fp/hard/libc.a(lib_a-puts.o)
                0x0000000008000df0                _puts_r
                0x0000000008000e58                puts
 *fill*         0x0000000008000e68       0x18 
 .text          0x0000000008000e80       0xdc /usr/lib/gcc/arm-none-eabi/9.2.1/../../../arm-none-eabi/lib/thumb/v7e-m+fp/hard/libc.a(lib_a-strlen.o)
                0x0000000008000e80                strlen
 *fill*         0x0000000008000f5c        0x4 
 .text          0x0000000008000f60     0x1580 /usr/lib/gcc/arm-none-eabi/9.2.1/../../../arm-none-eabi/lib/thumb/v7e-m+fp/hard/libc.a(lib_a-vfprintf.o)
                0x0000000008000f60                _vfprintf_r
                0x000000000800245c                vfprintf
 .text          0x00000000080024e0       0xd0 /usr/lib/gcc/arm-none-eabi/9.2.1/../../../arm-none-eabi/lib/thumb/v7e-m+fp/hard/libc.a(lib_a-wsetup.o)
                0x00000000080024e0                __swsetup_r
 .text          0x00000000080025b0      0xfc0 /usr/lib/gcc/arm-none-eabi/9.2.1/../../../arm-none-eabi/lib/thumb/v7e-m+fp/hard/libc.a(lib_a-dtoa.o)
                0x00000000080026d4                _dtoa_r
 .text          0x0000000008003570      0x1a4 /usr/lib/gcc/arm-none-eabi/9.2.1/../../../arm-none-eabi/lib/thumb/v7e-m+fp/hard/libc.a(lib_a-fflush.o)
                0x0000000008003570                __sflush_r
                0x00000000080036bc                _fflush_r
                0x00000000080036f0                fflush
 .text          0x0000000008003714      0x1f4 /usr/lib/gcc/arm-none-eabi/9.2.1/../../../arm-none-eabi/lib/thumb/v7e-m+fp/hard/libc.a(lib_a-findfp.o)
                0x0000000008003718                _cleanup_r
                0x00000000080037fc                __sfmoreglue
                0x000000000800382c                __sfp
                0x00000000080038b4                _cleanup
                0x00000000080038c8                __sinit
                0x00000000080038d0                __sfp_lock_acquire
                0x00000000080038d4                __sfp_lock_release
                0x00000000080038d8                __sinit_lock_acquire
                0x00000000080038dc                __sinit_lock_release
                0x00000000080038e0                __fp_lock_all
                0x00000000080038f4                __fp_unlock_all
 .text          0x0000000008003908      0x294 /usr/lib/gcc/arm-none-eabi/9.2.1/../../../arm-none-eabi/lib/thumb/v7e-m+fp/hard/libc.a(lib_a-freer.o)
                0x0000000008003908                _malloc_trim_r
                0x00000000080039a8                _free_r
 .text          0x0000000008003b9c      0x308 /usr/lib/gcc/arm-none-eabi/9.2.1/../../../arm-none-eabi/lib/thumb/v7e-m+fp/hard/libc.a(lib_a-fvwrite.o)
                0x0000000008003b9c                __sfvwrite_r
 .text          0x0000000008003ea4       0xa0 /usr/lib/gcc/arm-none-eabi/9.2.1/../../../arm-none-eabi/lib/thumb/v7e-m+fp/hard/libc.a(lib_a-fwalk.o)
                0x0000000008003ea4                _fwalk
                0x0000000008003ef0                _fwalk_reent
 .text          0x0000000008003f44       0x14 /usr/lib/gcc/arm-none-eabi/9.2.1/../../../arm-none-eabi/lib/thumb/v7e-m+fp/hard/libc.a(lib_a-localeconv.o)
                0x0000000008003f44                __localeconv_l
                0x0000000008003f48                _localeconv_r
                0x0000000008003f50                localeconv
 .text          0x0000000008003f58       0xf0 /usr/lib/gcc/arm-none-eabi/9.2.1/../../../arm-none-eabi/lib/thumb/v7e-m+fp/hard/libc.a(lib_a-makebuf.o)
                0x0000000008003f58                __swhatbuf_r
                0x0000000008003fb4                __smakebuf_r
 .text          0x0000000008004048      0x564 /usr/lib/gcc/arm-none-eabi/9.2.1/../../../arm-none-eabi/lib/thumb/v7e-m+fp/hard/libc.a(lib_a-mallocr.o)
                0x0000000008004048                _malloc_r
 *fill*         0x00000000080045ac        0x4 
 .text          0x00000000080045b0       0xa0 /usr/lib/gcc/arm-none-eabi/9.2.1/../../../arm-none-eabi/lib/thumb/v7e-m+fp/hard/libc.a(lib_a-memchr.o)
                0x00000000080045b0                memchr
 .text          0x0000000008004650      0x134 /usr/lib/gcc/arm-none-eabi/9.2.1/../../../arm-none-eabi/lib/thumb/v7e-m+fp/hard/libc.a(lib_a-memcpy.o)
                0x0000000008004650                memcpy
 .text          0x0000000008004784       0xd0 /usr/lib/gcc/arm-none-eabi/9.2.1/../../../arm-none-eabi/lib/thumb/v7e-m+fp/hard/libc.a(lib_a-memmove.o)
                0x0000000008004784                memmove
 .text          0x0000000008004854       0xa0 /usr/lib/gcc/arm-none-eabi/9.2.1/../../../arm-none-eabi/lib/thumb/v7e-m+fp/hard/libc.a(lib_a-memset.o)
                0x0000000008004854                memset
 .text          0x00000000080048f4        0x8 /usr/lib/gcc/arm-none-eabi/9.2.1/../../../arm-none-eabi/lib/thumb/v7e-m+fp/hard/libc.a(lib_a-mlock.o)
                0x00000000080048f4                __malloc_lock
                0x00000000080048f8                __malloc_unlock
 .text          0x00000000080048fc      0x9a8 /usr/lib/gcc/arm-none-eabi/9.2.1/../../../arm-none-eabi/lib/thumb/v7e-m+fp/hard/libc.a(lib_a-mprec.o)
                0x00000000080048fc                _Balloc
                0x0000000008004948                _Bfree
                0x000000000800495c                __multadd
                0x0000000008004a00                __s2b
                0x0000000008004aac                __hi0bits
                0x0000000008004aec                __lo0bits
                0x0000000008004b4c                __i2b
                0x0000000008004b78                __multiply
                0x0000000008004cc4                __pow5mult
                0x0000000008004d5c                __lshift
                0x0000000008004e28                __mcmp
                0x0000000008004e60                __mdiff
                0x0000000008004f88                __ulp
                0x0000000008004fd8                __b2d
                0x0000000008005090                __d2b
                0x0000000008005164                __ratio
                0x00000000080051c4                _mprec_log10
                0x0000000008005204                __copybits
                0x000000000800524c                __any_on
 .text          0x00000000080052a4      0x36c /usr/lib/gcc/arm-none-eabi/9.2.1/../../../arm-none-eabi/lib/thumb/v7e-m+fp/hard/libc.a(lib_a-reallocr.o)
                0x00000000080052a4                _realloc_r
 .text          0x0000000008005610       0x24 /usr/lib/gcc/arm-none-eabi/9.2.1/../../../arm-none-eabi/lib/thumb/v7e-m+fp/hard/libc.a(lib_a-sbrkr.o)
                0x0000000008005610                _sbrk_r
 .text          0x0000000008005634       0x90 /usr/lib/gcc/arm-none-eabi/9.2.1/../../../arm-none-eabi/lib/thumb/v7e-m+fp/hard/libc.a(lib_a-stdio.o)
                0x0000000008005634                __sread
                0x0000000008005658                __seofread
                0x000000000800565c                __swrite
                0x000000000800569c                __sseek
                0x00000000080056bc                __sclose
 .text          0x00000000080056c4      0xd00 /usr/lib/gcc/arm-none-eabi/9.2.1/../../../arm-none-eabi/lib/thumb/v7e-m+fp/hard/libc.a(lib_a-vfiprintf.o)
                0x000000000800573c                __sprint_r
                0x0000000008005750                _vfiprintf_r
                0x0000000008006340                vfiprintf
 .text          0x00000000080063c4       0x2c /usr/lib/gcc/arm-none-eabi/9.2.1/../../../arm-none-eabi/lib/thumb/v7e-m+fp/hard/libc.a(lib_a-writer.o)
                0x00000000080063c4                _write_r
 .text          0x00000000080063f0       0x48 /usr/lib/gcc/arm-none-eabi/9.2.1/../../../arm-none-eabi/lib/thumb/v7e-m+fp/hard/libc.a(lib_a-assert.o)
                0x00000000080063f0                __assert_func
                0x000000000800642c                __assert
 .text          0x0000000008006438       0x60 /usr/lib/gcc/arm-none-eabi/9.2.1/../../../arm-none-eabi/lib/thumb/v7e-m+fp/hard/libc.a(lib_a-callocr.o)
                0x0000000008006438                _calloc_r
 .text          0x0000000008006498       0x24 /usr/lib/gcc/arm-none-eabi/9.2.1/../../../arm-none-eabi/lib/thumb/v7e-m+fp/hard/libc.a(lib_a-closer.o)
                0x0000000008006498                _close_r
 .text          0x00000000080064bc       0x98 /usr/lib/gcc/arm-none-eabi/9.2.1/../../../arm-none-eabi/lib/thumb/v7e-m+fp/hard/libc.a(lib_a-fclose.o)
                0x00000000080064bc                _fclose_r
                0x0000000008006544                fclose
 .text          0x0000000008006554       0x44 /usr/lib/gcc/arm-none-eabi/9.2.1/../../../arm-none-eabi/lib/thumb/v7e-m+fp/hard/libc.a(lib_a-fiprintf.o)
                0x0000000008006554                _fiprintf_r
                0x0000000008006570                fiprintf
 .text          0x0000000008006598      0x110 /usr/lib/gcc/arm-none-eabi/9.2.1/../../../arm-none-eabi/lib/thumb/v7e-m+fp/hard/libc.a(lib_a-fputwc.o)
                0x0000000008006598                __fputwc
                0x0000000008006640                _fputwc_r
                0x0000000008006668                fputwc
 .text          0x00000000080066a8       0x28 /usr/lib/gcc/arm-none-eabi/9.2.1/../../../arm-none-eabi/lib/thumb/v7e-m+fp/hard/libc.a(lib_a-fstatr.o)
                0x00000000080066a8                _fstat_r
 .text          0x00000000080066d0       0x24 /usr/lib/gcc/arm-none-eabi/9.2.1/../../../arm-none-eabi/lib/thumb/v7e-m+fp/hard/libc.a(lib_a-isattyr.o)
                0x00000000080066d0                _isatty_r
 .text          0x00000000080066f4       0x5c /usr/lib/gcc/arm-none-eabi/9.2.1/../../../arm-none-eabi/lib/thumb/v7e-m+fp/hard/libc.a(lib_a-locale.o)
                0x00000000080066f4                _setlocale_r
                0x0000000008006734                __locale_mb_cur_max
                0x0000000008006740                setlocale
 .text          0x0000000008006750       0x2c /usr/lib/gcc/arm-none-eabi/9.2.1/../../../arm-none-eabi/lib/thumb/v7e-m+fp/hard/libc.a(lib_a-lseekr.o)
                0x0000000008006750                _lseek_r
 .text          0x000000000800677c       0x40 /usr/lib/gcc/arm-none-eabi/9.2.1/../../../arm-none-eabi/lib/thumb/v7e-m+fp/hard/libc.a(lib_a-mbtowc_r.o)
                0x000000000800677c                _mbtowc_r
                0x0000000008006790                __ascii_mbtowc
 .text          0x00000000080067bc       0x2c /usr/lib/gcc/arm-none-eabi/9.2.1/../../../arm-none-eabi/lib/thumb/v7e-m+fp/hard/libc.a(lib_a-readr.o)
                0x00000000080067bc                _read_r
 *fill*         0x00000000080067e8       0x18 
 .text          0x0000000008006800      0x2dc /usr/lib/gcc/arm-none-eabi/9.2.1/../../../arm-none-eabi/lib/thumb/v7e-m+fp/hard/libc.a(lib_a-strcmp.o)
                0x0000000008006808                strcmp
 .text          0x0000000008006adc       0xc0 /usr/lib/gcc/arm-none-eabi/9.2.1/../../../arm-none-eabi/lib/thumb/v7e-m+fp/hard/libc.a(lib_a-wbuf.o)
                0x0000000008006adc                __swbuf_r
                0x0000000008006b8c                __swbuf
 .text          0x0000000008006b9c       0x7c /usr/lib/gcc/arm-none-eabi/9.2.1/../../../arm-none-eabi/lib/thumb/v7e-m+fp/hard/libc.a(lib_a-wcrtomb.o)
                0x0000000008006b9c                _wcrtomb_r
                0x0000000008006bd0                wcrtomb
 .text          0x0000000008006c18       0x30 /usr/lib/gcc/arm-none-eabi/9.2.1/../../../arm-none-eabi/lib/thumb/v7e-m+fp/hard/libc.a(lib_a-wctomb_r.o)
                0x0000000008006c18                _wctomb_r
                0x0000000008006c2c                __ascii_wctomb
 .text          0x0000000008006c48       0x10 /usr/lib/gcc/arm-none-eabi/9.2.1/../../../arm-none-eabi/lib/thumb/v7e-m+fp/hard/libc.a(lib_a-abort.o)
                0x0000000008006c48                abort
 .text          0x0000000008006c58      0x15c /usr/lib/gcc/arm-none-eabi/9.2.1/../../../arm-none-eabi/lib/thumb/v7e-m+fp/hard/libc.a(lib_a-signal.o)
                0x0000000008006c80                _init_signal_r
                0x0000000008006c8c                _signal_r
                0x0000000008006cc4                _raise_r
                0x0000000008006d1c                __sigtramp_r
                0x0000000008006d70                raise
                0x0000000008006d80                signal
                0x0000000008006d90                _init_signal
                0x0000000008006da4                __sigtramp
 .text          0x0000000008006db4       0x2c /usr/lib/gcc/arm-none-eabi/9.2.1/../../../arm-none-eabi/lib/thumb/v7e-m+fp/hard/libc.a(lib_a-signalr.o)
                0x0000000008006db4                _kill_r
                0x0000000008006ddc                _getpid_r
 .text          0x0000000008006de0      0x378 /usr/lib/gcc/arm-none-eabi/9.2.1/thumb/v7e-m+fp/hard/libgcc.a(_arm_addsubdf3.o)
                0x0000000008006de0                __aeabi_drsub
                0x0000000008006de8                __aeabi_dsub
                0x0000000008006de8                __subdf3
                0x0000000008006dec                __adddf3
                0x0000000008006dec                __aeabi_dadd
                0x0000000008007064                __aeabi_ui2d
                0x0000000008007064                __floatunsidf
                0x0000000008007084                __floatsidf
                0x0000000008007084                __aeabi_i2d
                0x00000000080070a8                __extendsfdf2
                0x00000000080070a8                __aeabi_f2d
                0x00000000080070ec                __aeabi_ul2d
                0x00000000080070ec                __floatundidf
                0x00000000080070fc                __floatdidf
                0x00000000080070fc                __aeabi_l2d
 .text          0x0000000008007158      0x424 /usr/lib/gcc/arm-none-eabi/9.2.1/thumb/v7e-m+fp/hard/libgcc.a(_arm_muldivdf3.o)
                0x0000000008007158                __aeabi_dmul
                0x0000000008007158                __muldf3
                0x00000000080073ac                __aeabi_ddiv
                0x00000000080073ac                __divdf3
 .text          0x000000000800757c      0x110 /usr/lib/gcc/arm-none-eabi/9.2.1/thumb/v7e-m+fp/hard/libgcc.a(_arm_cmpdf2.o)
                0x000000000800757c                __gtdf2
                0x000000000800757c                __gedf2
                0x0000000008007584                __ltdf2
                0x0000000008007584                __ledf2
                0x000000000800758c                __cmpdf2
                0x000000000800758c                __eqdf2
                0x000000000800758c                __nedf2
                0x0000000008007608                __aeabi_cdrcmple
                0x0000000008007618                __aeabi_cdcmple
                0x0000000008007618                __aeabi_cdcmpeq
                0x0000000008007628                __aeabi_dcmpeq
                0x000000000800763c                __aeabi_dcmplt
                0x0000000008007650                __aeabi_dcmple
                0x0000000008007664                __aeabi_dcmpge
                0x0000000008007678                __aeabi_dcmpgt
 .text          0x000000000800768c       0x2c /usr/lib/gcc/arm-none-eabi/9.2.1/thumb/v7e-m+fp/hard/libgcc.a(_arm_unorddf2.o)
                0x000000000800768c                __aeabi_dcmpun
                0x000000000800768c                __unorddf2
 .text          0x00000000080076b8       0x50 /usr/lib/gcc/arm-none-eabi/9.2.1/thumb/v7e-m+fp/hard/libgcc.a(_arm_fixdfsi.o)
                0x00000000080076b8                __fixdfsi
                0x00000000080076b8                __aeabi_d2iz
 .text          0x0000000008007708       0x30 /usr/lib/gcc/arm-none-eabi/9.2.1/thumb/v7e-m+fp/hard/libgcc.a(_aeabi_uldivmod.o)
                0x0000000008007708                __aeabi_uldivmod
 .text          0x0000000008007738      0x2c4 /usr/lib/gcc/arm-none-eabi/9.2.1/thumb/v7e-m+fp/hard/libgcc.a(_udivmoddi4.o)
                0x0000000008007738                __udivmoddi4
 .text          0x00000000080079fc        0x4 /usr/lib/gcc/arm-none-eabi/9.2.1/thumb/v7e-m+fp/hard/libgcc.a(_dvmd_tls.o)
                0x00000000080079fc                __aeabi_ldiv0
                0x00000000080079fc                __aeabi_idiv0
 .text          0x0000000008007a00       0x10 /usr/lib/gcc/arm-none-eabi/9.2.1/../../../arm-none-eabi/lib/thumb/v7e-m+fp/hard/libnosys.a(close.o)
                0x0000000008007a00                _close
 .text          0x0000000008007a10       0x10 /usr/lib/gcc/arm-none-eabi/9.2.1/../../../arm-none-eabi/lib/thumb/v7e-m+fp/hard/libnosys.a(fstat.o)
                0x0000000008007a10                _fstat
 .text          0x0000000008007a20       0x10 /usr/lib/gcc/arm-none-eabi/9.2.1/../../../arm-none-eabi/lib/thumb/v7e-m+fp/hard/libnosys.a(getpid.o)
                0x0000000008007a20                _getpid
 .text          0x0000000008007a30       0x10 /usr/lib/gcc/arm-none-eabi/9.2.1/../../../arm-none-eabi/lib/thumb/v7e-m+fp/hard/libnosys.a(isatty.o)
                0x0000000008007a30                _isatty
 .text          0x0000000008007a40       0x10 /usr/lib/gcc/arm-none-eabi/9.2.1/../../../arm-none-eabi/lib/thumb/v7e-m+fp/hard/libnosys.a(kill.o)
                0x0000000008007a40                _kill
 .text          0x0000000008007a50       0x10 /usr/lib/gcc/arm-none-eabi/9.2.1/../../../arm-none-eabi/lib/thumb/v7e-m+fp/hard/libnosys.a(lseek.o)
                0x0000000008007a50                _lseek
 .text          0x0000000008007a60       0x10 /usr/lib/gcc/arm-none-eabi/9.2.1/../../../arm-none-eabi/lib/thumb/v7e-m+fp/hard/libnosys.a(read.o)
                0x0000000008007a60                _read
 .text          0x0000000008007a70       0x1c /usr/lib/gcc/arm-none-eabi/9.2.1/../../../arm-none-eabi/lib/thumb/v7e-m+fp/hard/libnosys.a(sbrk.o)
                0x0000000008007a70                _sbrk
 .text          0x0000000008007a8c        0x4 /usr/lib/gcc/arm-none-eabi/9.2.1/../../../arm-none-eabi/lib/thumb/v7e-m+fp/hard/libnosys.a(_exit.o)
                0x0000000008007a8c                _exit
                0x0000000008007a90                . = ALIGN (0x4)
 *(.rodata*)
 .rodata.sdram_pins
                0x0000000008007a90       0x30 sdram.o
 .rodata.lcd_draw_pixel.str1.1
                0x0000000008007ac0       0x1c lcd.o
 .rodata.cmd_args
                0x0000000008007adc       0x3a lcd.o
 .rodata.initialization
                0x0000000008007b16       0x50 lcd.o
                0x0000000008007b16                initialization
 .rodata.main.str1.1
                0x0000000008007b66       0x14 labo4.o
 .rodata.CSWTCH.2
                0x0000000008007b7a        0x3 /home/juan/Documents/VIII_Semestre/Labo_Micros/Labos_con_Luisja/Laboratorio_Microcontroladores/Laboratorio_4/src/libopencm3-examples/libopencm3/lib/libopencm3_stm32f4.a(fmc_common_f47.o)
 *fill*         0x0000000008007b7d        0x3 
 .rodata.rcc_hse_8mhz_3v3
                0x0000000008007b80       0x54 /home/juan/Documents/VIII_Semestre/Labo_Micros/Labos_con_Luisja/Laboratorio_Microcontroladores/Laboratorio_4/src/libopencm3-examples/libopencm3/lib/libopencm3_stm32f4.a(rcc.o)
                0x0000000008007b80                rcc_hse_8mhz_3v3
 .rodata.str1.4
                0x0000000008007bd4        0x2 /usr/lib/gcc/arm-none-eabi/9.2.1/../../../arm-none-eabi/lib/thumb/v7e-m+fp/hard/libc.a(lib_a-puts.o)
 *fill*         0x0000000008007bd6        0x2 
 .rodata        0x0000000008007bd8       0x20 /usr/lib/gcc/arm-none-eabi/9.2.1/../../../arm-none-eabi/lib/thumb/v7e-m+fp/hard/libc.a(lib_a-vfprintf.o)
 .rodata.str1.4
                0x0000000008007bf8       0x42 /usr/lib/gcc/arm-none-eabi/9.2.1/../../../arm-none-eabi/lib/thumb/v7e-m+fp/hard/libc.a(lib_a-vfprintf.o)
 *fill*         0x0000000008007c3a        0x2 
 .rodata.str1.4
                0x0000000008007c3c       0x56 /usr/lib/gcc/arm-none-eabi/9.2.1/../../../arm-none-eabi/lib/thumb/v7e-m+fp/hard/libc.a(lib_a-dtoa.o)
                                         0x5a (size before relaxing)
 *fill*         0x0000000008007c92        0x2 
 .rodata        0x0000000008007c94        0x4 /usr/lib/gcc/arm-none-eabi/9.2.1/../../../arm-none-eabi/lib/thumb/v7e-m+fp/hard/libc.a(lib_a-impure.o)
                0x0000000008007c94                _global_impure_ptr
 .rodata        0x0000000008007c98      0x128 /usr/lib/gcc/arm-none-eabi/9.2.1/../../../arm-none-eabi/lib/thumb/v7e-m+fp/hard/libc.a(lib_a-mprec.o)
                0x0000000008007ca8                __mprec_tens
                0x0000000008007d70                __mprec_tinytens
                0x0000000008007d98                __mprec_bigtens
 .rodata.str1.4
                0x0000000008007dc0       0x33 /usr/lib/gcc/arm-none-eabi/9.2.1/../../../arm-none-eabi/lib/thumb/v7e-m+fp/hard/libc.a(lib_a-mprec.o)
                                         0x47 (size before relaxing)
 *fill*         0x0000000008007df3        0x1 
 .rodata        0x0000000008007df4       0x20 /usr/lib/gcc/arm-none-eabi/9.2.1/../../../arm-none-eabi/lib/thumb/v7e-m+fp/hard/libc.a(lib_a-vfiprintf.o)
 .rodata.str1.4
                0x0000000008007e14       0x2f /usr/lib/gcc/arm-none-eabi/9.2.1/../../../arm-none-eabi/lib/thumb/v7e-m+fp/hard/libc.a(lib_a-vfiprintf.o)
 .rodata.str1.4
                0x0000000008007e14       0x3f /usr/lib/gcc/arm-none-eabi/9.2.1/../../../arm-none-eabi/lib/thumb/v7e-m+fp/hard/libc.a(lib_a-assert.o)
                                         0x43 (size before relaxing)
 *fill*         0x0000000008007e53        0x1 
 .rodata.str1.4
                0x0000000008007e54        0xe /usr/lib/gcc/arm-none-eabi/9.2.1/../../../arm-none-eabi/lib/thumb/v7e-m+fp/hard/libc.a(lib_a-locale.o)
                                         0x12 (size before relaxing)
 *fill*         0x0000000008007e62        0x2 
 .rodata        0x0000000008007e64      0x101 /usr/lib/gcc/arm-none-eabi/9.2.1/../../../arm-none-eabi/lib/thumb/v7e-m+fp/hard/libc.a(lib_a-ctype_.o)
                0x0000000008007e64                _ctype_
                0x0000000008007f68                . = ALIGN (0x4)
 *fill*         0x0000000008007f65        0x3 

.glue_7         0x0000000008007f68        0x0
 .glue_7        0x0000000008007f68        0x0 linker stubs

.glue_7t        0x0000000008007f68        0x0
 .glue_7t       0x0000000008007f68        0x0 linker stubs

.vfp11_veneer   0x0000000008007f68        0x0
 .vfp11_veneer  0x0000000008007f68        0x0 linker stubs

.v4_bx          0x0000000008007f68        0x0
 .v4_bx         0x0000000008007f68        0x0 linker stubs

.iplt           0x0000000008007f68        0x0
 .iplt          0x0000000008007f68        0x0 sdram.o

.preinit_array  0x0000000008007f68        0x0
                0x0000000008007f68                . = ALIGN (0x4)
                0x0000000008007f68                __preinit_array_start = .
 *(.preinit_array)
                0x0000000008007f68                __preinit_array_end = .

.init_array     0x0000000008007f68        0x0
                0x0000000008007f68                . = ALIGN (0x4)
                0x0000000008007f68                __init_array_start = .
 *(SORT_BY_NAME(.init_array.*))
 *(.init_array)
                0x0000000008007f68                __init_array_end = .

.fini_array     0x0000000008007f68        0x0
                0x0000000008007f68                . = ALIGN (0x4)
                0x0000000008007f68                __fini_array_start = .
 *(.fini_array)
 *(SORT_BY_NAME(.fini_array.*))
                0x0000000008007f68                __fini_array_end = .

.ARM.extab
 *(.ARM.extab*)

.ARM.exidx      0x0000000008007f68        0x8
                0x0000000008007f68                __exidx_start = .
 *(.ARM.exidx*)
 .ARM.exidx     0x0000000008007f68        0x8 /usr/lib/gcc/arm-none-eabi/9.2.1/thumb/v7e-m+fp/hard/libgcc.a(_udivmoddi4.o)
                0x0000000008007f70                __exidx_end = .

.rel.dyn        0x0000000008007f70        0x0
 .rel.iplt      0x0000000008007f70        0x0 sdram.o
                0x0000000008007f70                . = ALIGN (0x4)
                0x0000000008007f70                _etext = .

.noinit
 *(.noinit*)
                0x0000000008007f70                . = ALIGN (0x4)

.data           0x0000000020000000      0xa24 load address 0x0000000008007f70
                0x0000000020000000                _data = .
 *(.data*)
 .data.timing   0x0000000020000000       0x1c sdram.o
 .data.lcd_colors
                0x000000002000001c       0x4c labo4.o
                0x000000002000001c                lcd_colors
 .data.rcc_ahb_frequency
                0x0000000020000068        0x4 /home/juan/Documents/VIII_Semestre/Labo_Micros/Labos_con_Luisja/Laboratorio_Microcontroladores/Laboratorio_4/src/libopencm3-examples/libopencm3/lib/libopencm3_stm32f4.a(rcc.o)
                0x0000000020000068                rcc_ahb_frequency
 .data.rcc_apb1_frequency
                0x000000002000006c        0x4 /home/juan/Documents/VIII_Semestre/Labo_Micros/Labos_con_Luisja/Laboratorio_Microcontroladores/Laboratorio_4/src/libopencm3-examples/libopencm3/lib/libopencm3_stm32f4.a(rcc.o)
                0x000000002000006c                rcc_apb1_frequency
 .data.rcc_apb2_frequency
                0x0000000020000070        0x4 /home/juan/Documents/VIII_Semestre/Labo_Micros/Labos_con_Luisja/Laboratorio_Microcontroladores/Laboratorio_4/src/libopencm3-examples/libopencm3/lib/libopencm3_stm32f4.a(rcc.o)
                0x0000000020000070                rcc_apb2_frequency
 *fill*         0x0000000020000074        0x4 
 .data          0x0000000020000078      0x430 /usr/lib/gcc/arm-none-eabi/9.2.1/../../../arm-none-eabi/lib/thumb/v7e-m+fp/hard/libc.a(lib_a-impure.o)
                0x0000000020000078                _impure_ptr
 .data          0x00000000200004a8      0x410 /usr/lib/gcc/arm-none-eabi/9.2.1/../../../arm-none-eabi/lib/thumb/v7e-m+fp/hard/libc.a(lib_a-mallocr.o)
                0x00000000200004a8                __malloc_av_
                0x00000000200008b0                __malloc_sbrk_base
                0x00000000200008b4                __malloc_trim_threshold
 .data          0x00000000200008b8      0x16c /usr/lib/gcc/arm-none-eabi/9.2.1/../../../arm-none-eabi/lib/thumb/v7e-m+fp/hard/libc.a(lib_a-locale.o)
                0x00000000200008b8                __global_locale
 *(.ramtext*)
                0x0000000020000a24                . = ALIGN (0x4)
                0x0000000020000a24                _edata = .
                0x0000000008007f70                _data_loadaddr = LOADADDR (.data)

.igot.plt       0x0000000020000a24        0x0 load address 0x0000000008008994
 .igot.plt      0x0000000020000a24        0x0 sdram.o

.bss            0x0000000020000a24       0x4c load address 0x0000000008008994
 *(.bss*)
 .bss.cur_frame
                0x0000000020000a24        0x4 lcd.o
                0x0000000020000a24                cur_frame
 .bss.display_frame
                0x0000000020000a28        0x4 lcd.o
                0x0000000020000a28                display_frame
 .bss.delay_timer
                0x0000000020000a2c        0x4 clock.o
 .bss.system_millis
                0x0000000020000a30        0x4 clock.o
 .bss           0x0000000020000a34       0x34 /usr/lib/gcc/arm-none-eabi/9.2.1/../../../arm-none-eabi/lib/thumb/v7e-m+fp/hard/libc.a(lib_a-mallocr.o)
                0x0000000020000a34                __malloc_top_pad
                0x0000000020000a38                __malloc_current_mallinfo
                0x0000000020000a60                __malloc_max_sbrked_mem
                0x0000000020000a64                __malloc_max_total_mem
 .bss           0x0000000020000a68        0x4 /usr/lib/gcc/arm-none-eabi/9.2.1/../../../arm-none-eabi/lib/thumb/v7e-m+fp/hard/libnosys.a(sbrk.o)
 *(COMMON)
 COMMON         0x0000000020000a6c        0x4 /usr/lib/gcc/arm-none-eabi/9.2.1/../../../arm-none-eabi/lib/thumb/v7e-m+fp/hard/libc.a(lib_a-reent.o)
                0x0000000020000a6c                errno
                0x0000000020000a70                . = ALIGN (0x4)
                0x0000000020000a70                _ebss = .

/DISCARD/
 *(.eh_frame)
                0x0000000020000a70                . = ALIGN (0x4)
                0x0000000020000a70                end = .
                0x0000000020030000                PROVIDE (_stack = (ORIGIN (ram) + LENGTH (ram)))
OUTPUT(labo4.elf elf32-littlearm)
LOAD linker stubs

.debug_info     0x0000000000000000    0x3488d
 .debug_info    0x0000000000000000      0x9fe sdram.o
 .debug_info    0x00000000000009fe     0x1559 lcd.o
 .debug_info    0x0000000000001f57      0xc12 clock.o
 .debug_info    0x0000000000002b69     0x14f8 labo4.o
 .debug_info    0x0000000000004061      0x209 /home/juan/Documents/VIII_Semestre/Labo_Micros/Labos_con_Luisja/Laboratorio_Microcontroladores/Laboratorio_4/src/libopencm3-examples/libopencm3/lib/libopencm3_stm32f4.a(fmc_common_f47.o)
 .debug_info    0x000000000000426a      0x24e /home/juan/Documents/VIII_Semestre/Labo_Micros/Labos_con_Luisja/Laboratorio_Microcontroladores/Laboratorio_4/src/libopencm3-examples/libopencm3/lib/libopencm3_stm32f4.a(gpio_common_all.o)
 .debug_info    0x00000000000044b8      0x20f /home/juan/Documents/VIII_Semestre/Labo_Micros/Labos_con_Luisja/Laboratorio_Microcontroladores/Laboratorio_4/src/libopencm3-examples/libopencm3/lib/libopencm3_stm32f4.a(gpio_common_f0234.o)
 .debug_info    0x00000000000046c7      0xaca /home/juan/Documents/VIII_Semestre/Labo_Micros/Labos_con_Luisja/Laboratorio_Microcontroladores/Laboratorio_4/src/libopencm3-examples/libopencm3/lib/libopencm3_stm32f4.a(rcc_common_all.o)
 .debug_info    0x0000000000005191     0x1124 /home/juan/Documents/VIII_Semestre/Labo_Micros/Labos_con_Luisja/Laboratorio_Microcontroladores/Laboratorio_4/src/libopencm3-examples/libopencm3/lib/libopencm3_stm32f4.a(rcc.o)
 .debug_info    0x00000000000062b5      0xbd0 /home/juan/Documents/VIII_Semestre/Labo_Micros/Labos_con_Luisja/Laboratorio_Microcontroladores/Laboratorio_4/src/libopencm3-examples/libopencm3/lib/libopencm3_stm32f4.a(spi_common_all.o)
 .debug_info    0x0000000000006e85      0x2f0 /home/juan/Documents/VIII_Semestre/Labo_Micros/Labos_con_Luisja/Laboratorio_Microcontroladores/Laboratorio_4/src/libopencm3-examples/libopencm3/lib/libopencm3_stm32f4.a(spi_common_v1.o)
 .debug_info    0x0000000000007175      0x71e /home/juan/Documents/VIII_Semestre/Labo_Micros/Labos_con_Luisja/Laboratorio_Microcontroladores/Laboratorio_4/src/libopencm3-examples/libopencm3/lib/libopencm3_stm32f4.a(usart_common_all.o)
 .debug_info    0x0000000000007893      0x2e6 /home/juan/Documents/VIII_Semestre/Labo_Micros/Labos_con_Luisja/Laboratorio_Microcontroladores/Laboratorio_4/src/libopencm3-examples/libopencm3/lib/libopencm3_stm32f4.a(vector.o)
 .debug_info    0x0000000000007b79      0x268 /home/juan/Documents/VIII_Semestre/Labo_Micros/Labos_con_Luisja/Laboratorio_Microcontroladores/Laboratorio_4/src/libopencm3-examples/libopencm3/lib/libopencm3_stm32f4.a(systick.o)
 .debug_info    0x0000000000007de1       0xf0 /home/juan/Documents/VIII_Semestre/Labo_Micros/Labos_con_Luisja/Laboratorio_Microcontroladores/Laboratorio_4/src/libopencm3-examples/libopencm3/lib/libopencm3_stm32f4.a(flash_common_all.o)
 .debug_info    0x0000000000007ed1       0xe8 /home/juan/Documents/VIII_Semestre/Labo_Micros/Labos_con_Luisja/Laboratorio_Microcontroladores/Laboratorio_4/src/libopencm3-examples/libopencm3/lib/libopencm3_stm32f4.a(flash_common_idcache.o)
 .debug_info    0x0000000000007fb9       0xdc /home/juan/Documents/VIII_Semestre/Labo_Micros/Labos_con_Luisja/Laboratorio_Microcontroladores/Laboratorio_4/src/libopencm3-examples/libopencm3/lib/libopencm3_stm32f4.a(pwr.o)
 .debug_info    0x0000000000008095      0xc35 /usr/lib/gcc/arm-none-eabi/9.2.1/../../../arm-none-eabi/lib/thumb/v7e-m+fp/hard/libc.a(lib_a-printf.o)
 .debug_info    0x0000000000008cca      0xce5 /usr/lib/gcc/arm-none-eabi/9.2.1/../../../arm-none-eabi/lib/thumb/v7e-m+fp/hard/libc.a(lib_a-puts.o)
 .debug_info    0x00000000000099af       0x26 /usr/lib/gcc/arm-none-eabi/9.2.1/../../../arm-none-eabi/lib/thumb/v7e-m+fp/hard/libc.a(lib_a-strlen.o)
 .debug_info    0x00000000000099d5     0x209a /usr/lib/gcc/arm-none-eabi/9.2.1/../../../arm-none-eabi/lib/thumb/v7e-m+fp/hard/libc.a(lib_a-vfprintf.o)
 .debug_info    0x000000000000ba6f      0xbf3 /usr/lib/gcc/arm-none-eabi/9.2.1/../../../arm-none-eabi/lib/thumb/v7e-m+fp/hard/libc.a(lib_a-wsetup.o)
 .debug_info    0x000000000000c662     0x1acf /usr/lib/gcc/arm-none-eabi/9.2.1/../../../arm-none-eabi/lib/thumb/v7e-m+fp/hard/libc.a(lib_a-dtoa.o)
 .debug_info    0x000000000000e131      0xd73 /usr/lib/gcc/arm-none-eabi/9.2.1/../../../arm-none-eabi/lib/thumb/v7e-m+fp/hard/libc.a(lib_a-fflush.o)
 .debug_info    0x000000000000eea4     0x1143 /usr/lib/gcc/arm-none-eabi/9.2.1/../../../arm-none-eabi/lib/thumb/v7e-m+fp/hard/libc.a(lib_a-findfp.o)
 .debug_info    0x000000000000ffe7      0xdc4 /usr/lib/gcc/arm-none-eabi/9.2.1/../../../arm-none-eabi/lib/thumb/v7e-m+fp/hard/libc.a(lib_a-freer.o)
 .debug_info    0x0000000000010dab      0xeed /usr/lib/gcc/arm-none-eabi/9.2.1/../../../arm-none-eabi/lib/thumb/v7e-m+fp/hard/libc.a(lib_a-fvwrite.o)
 .debug_info    0x0000000000011c98      0xca4 /usr/lib/gcc/arm-none-eabi/9.2.1/../../../arm-none-eabi/lib/thumb/v7e-m+fp/hard/libc.a(lib_a-fwalk.o)
 .debug_info    0x000000000001293c      0x92a /usr/lib/gcc/arm-none-eabi/9.2.1/../../../arm-none-eabi/lib/thumb/v7e-m+fp/hard/libc.a(lib_a-impure.o)
 .debug_info    0x0000000000013266      0xf49 /usr/lib/gcc/arm-none-eabi/9.2.1/../../../arm-none-eabi/lib/thumb/v7e-m+fp/hard/libc.a(lib_a-localeconv.o)
 .debug_info    0x00000000000141af      0xf69 /usr/lib/gcc/arm-none-eabi/9.2.1/../../../arm-none-eabi/lib/thumb/v7e-m+fp/hard/libc.a(lib_a-makebuf.o)
 .debug_info    0x0000000000015118      0xf41 /usr/lib/gcc/arm-none-eabi/9.2.1/../../../arm-none-eabi/lib/thumb/v7e-m+fp/hard/libc.a(lib_a-mallocr.o)
 .debug_info    0x0000000000016059       0x26 /usr/lib/gcc/arm-none-eabi/9.2.1/../../../arm-none-eabi/lib/thumb/v7e-m+fp/hard/libc.a(lib_a-memchr.o)
 .debug_info    0x000000000001607f       0x26 /usr/lib/gcc/arm-none-eabi/9.2.1/../../../arm-none-eabi/lib/thumb/v7e-m+fp/hard/libc.a(lib_a-memcpy.o)
 .debug_info    0x00000000000160a5      0xf2b /usr/lib/gcc/arm-none-eabi/9.2.1/../../../arm-none-eabi/lib/thumb/v7e-m+fp/hard/libc.a(lib_a-memmove.o)
 .debug_info    0x0000000000016fd0      0xf21 /usr/lib/gcc/arm-none-eabi/9.2.1/../../../arm-none-eabi/lib/thumb/v7e-m+fp/hard/libc.a(lib_a-memset.o)
 .debug_info    0x0000000000017ef1      0x961 /usr/lib/gcc/arm-none-eabi/9.2.1/../../../arm-none-eabi/lib/thumb/v7e-m+fp/hard/libc.a(lib_a-mlock.o)
 .debug_info    0x0000000000018852     0x228d /usr/lib/gcc/arm-none-eabi/9.2.1/../../../arm-none-eabi/lib/thumb/v7e-m+fp/hard/libc.a(lib_a-mprec.o)
 .debug_info    0x000000000001aadf      0xefd /usr/lib/gcc/arm-none-eabi/9.2.1/../../../arm-none-eabi/lib/thumb/v7e-m+fp/hard/libc.a(lib_a-reallocr.o)
 .debug_info    0x000000000001b9dc      0x9fb /usr/lib/gcc/arm-none-eabi/9.2.1/../../../arm-none-eabi/lib/thumb/v7e-m+fp/hard/libc.a(lib_a-sbrkr.o)
 .debug_info    0x000000000001c3d7      0xe67 /usr/lib/gcc/arm-none-eabi/9.2.1/../../../arm-none-eabi/lib/thumb/v7e-m+fp/hard/libc.a(lib_a-stdio.o)
 .debug_info    0x000000000001d23e     0x1eb6 /usr/lib/gcc/arm-none-eabi/9.2.1/../../../arm-none-eabi/lib/thumb/v7e-m+fp/hard/libc.a(lib_a-vfiprintf.o)
 .debug_info    0x000000000001f0f4      0xa2c /usr/lib/gcc/arm-none-eabi/9.2.1/../../../arm-none-eabi/lib/thumb/v7e-m+fp/hard/libc.a(lib_a-writer.o)
 .debug_info    0x000000000001fb20      0xa41 /usr/lib/gcc/arm-none-eabi/9.2.1/../../../arm-none-eabi/lib/thumb/v7e-m+fp/hard/libc.a(lib_a-assert.o)
 .debug_info    0x0000000000020561      0xc2f /usr/lib/gcc/arm-none-eabi/9.2.1/../../../arm-none-eabi/lib/thumb/v7e-m+fp/hard/libc.a(lib_a-callocr.o)
 .debug_info    0x0000000000021190      0x9d8 /usr/lib/gcc/arm-none-eabi/9.2.1/../../../arm-none-eabi/lib/thumb/v7e-m+fp/hard/libc.a(lib_a-closer.o)
 .debug_info    0x0000000000021b68      0xcd5 /usr/lib/gcc/arm-none-eabi/9.2.1/../../../arm-none-eabi/lib/thumb/v7e-m+fp/hard/libc.a(lib_a-fclose.o)
 .debug_info    0x000000000002283d      0xa71 /usr/lib/gcc/arm-none-eabi/9.2.1/../../../arm-none-eabi/lib/thumb/v7e-m+fp/hard/libc.a(lib_a-fiprintf.o)
 .debug_info    0x00000000000232ae      0xe4a /usr/lib/gcc/arm-none-eabi/9.2.1/../../../arm-none-eabi/lib/thumb/v7e-m+fp/hard/libc.a(lib_a-fputwc.o)
 .debug_info    0x00000000000240f8      0xc24 /usr/lib/gcc/arm-none-eabi/9.2.1/../../../arm-none-eabi/lib/thumb/v7e-m+fp/hard/libc.a(lib_a-fstatr.o)
 .debug_info    0x0000000000024d1c      0x9d8 /usr/lib/gcc/arm-none-eabi/9.2.1/../../../arm-none-eabi/lib/thumb/v7e-m+fp/hard/libc.a(lib_a-isattyr.o)
 .debug_info    0x00000000000256f4     0x10ca /usr/lib/gcc/arm-none-eabi/9.2.1/../../../arm-none-eabi/lib/thumb/v7e-m+fp/hard/libc.a(lib_a-locale.o)
 .debug_info    0x00000000000267be      0xa0d /usr/lib/gcc/arm-none-eabi/9.2.1/../../../arm-none-eabi/lib/thumb/v7e-m+fp/hard/libc.a(lib_a-lseekr.o)
 .debug_info    0x00000000000271cb     0x1044 /usr/lib/gcc/arm-none-eabi/9.2.1/../../../arm-none-eabi/lib/thumb/v7e-m+fp/hard/libc.a(lib_a-mbtowc_r.o)
 .debug_info    0x000000000002820f      0xa25 /usr/lib/gcc/arm-none-eabi/9.2.1/../../../arm-none-eabi/lib/thumb/v7e-m+fp/hard/libc.a(lib_a-readr.o)
 .debug_info    0x0000000000028c34      0xac5 /usr/lib/gcc/arm-none-eabi/9.2.1/../../../arm-none-eabi/lib/thumb/v7e-m+fp/hard/libc.a(lib_a-reent.o)
 .debug_info    0x00000000000296f9       0x26 /usr/lib/gcc/arm-none-eabi/9.2.1/../../../arm-none-eabi/lib/thumb/v7e-m+fp/hard/libc.a(lib_a-strcmp.o)
 .debug_info    0x000000000002971f      0xc90 /usr/lib/gcc/arm-none-eabi/9.2.1/../../../arm-none-eabi/lib/thumb/v7e-m+fp/hard/libc.a(lib_a-wbuf.o)
 .debug_info    0x000000000002a3af     0x10b3 /usr/lib/gcc/arm-none-eabi/9.2.1/../../../arm-none-eabi/lib/thumb/v7e-m+fp/hard/libc.a(lib_a-wcrtomb.o)
 .debug_info    0x000000000002b462      0xffd /usr/lib/gcc/arm-none-eabi/9.2.1/../../../arm-none-eabi/lib/thumb/v7e-m+fp/hard/libc.a(lib_a-wctomb_r.o)
 .debug_info    0x000000000002c45f      0x9b5 /usr/lib/gcc/arm-none-eabi/9.2.1/../../../arm-none-eabi/lib/thumb/v7e-m+fp/hard/libc.a(lib_a-abort.o)
 .debug_info    0x000000000002ce14      0xe91 /usr/lib/gcc/arm-none-eabi/9.2.1/../../../arm-none-eabi/lib/thumb/v7e-m+fp/hard/libc.a(lib_a-ctype_.o)
 .debug_info    0x000000000002dca5      0xd5c /usr/lib/gcc/arm-none-eabi/9.2.1/../../../arm-none-eabi/lib/thumb/v7e-m+fp/hard/libc.a(lib_a-signal.o)
 .debug_info    0x000000000002ea01      0xa44 /usr/lib/gcc/arm-none-eabi/9.2.1/../../../arm-none-eabi/lib/thumb/v7e-m+fp/hard/libc.a(lib_a-signalr.o)
 .debug_info    0x000000000002f445       0x26 /usr/lib/gcc/arm-none-eabi/9.2.1/thumb/v7e-m+fp/hard/libgcc.a(_arm_addsubdf3.o)
 .debug_info    0x000000000002f46b       0x26 /usr/lib/gcc/arm-none-eabi/9.2.1/thumb/v7e-m+fp/hard/libgcc.a(_arm_muldivdf3.o)
 .debug_info    0x000000000002f491       0x26 /usr/lib/gcc/arm-none-eabi/9.2.1/thumb/v7e-m+fp/hard/libgcc.a(_arm_cmpdf2.o)
 .debug_info    0x000000000002f4b7       0x26 /usr/lib/gcc/arm-none-eabi/9.2.1/thumb/v7e-m+fp/hard/libgcc.a(_arm_unorddf2.o)
 .debug_info    0x000000000002f4dd       0x26 /usr/lib/gcc/arm-none-eabi/9.2.1/thumb/v7e-m+fp/hard/libgcc.a(_arm_fixdfsi.o)
 .debug_info    0x000000000002f503       0x26 /usr/lib/gcc/arm-none-eabi/9.2.1/thumb/v7e-m+fp/hard/libgcc.a(_aeabi_uldivmod.o)
 .debug_info    0x000000000002f529      0xd7c /usr/lib/gcc/arm-none-eabi/9.2.1/thumb/v7e-m+fp/hard/libgcc.a(_udivmoddi4.o)
 .debug_info    0x00000000000302a5       0x26 /usr/lib/gcc/arm-none-eabi/9.2.1/thumb/v7e-m+fp/hard/libgcc.a(_dvmd_tls.o)
 .debug_info    0x00000000000302cb      0x96e /usr/lib/gcc/arm-none-eabi/9.2.1/../../../arm-none-eabi/lib/thumb/v7e-m+fp/hard/libnosys.a(close.o)
 .debug_info    0x0000000000030c39      0xbb1 /usr/lib/gcc/arm-none-eabi/9.2.1/../../../arm-none-eabi/lib/thumb/v7e-m+fp/hard/libnosys.a(fstat.o)
 .debug_info    0x00000000000317ea      0x959 /usr/lib/gcc/arm-none-eabi/9.2.1/../../../arm-none-eabi/lib/thumb/v7e-m+fp/hard/libnosys.a(getpid.o)
 .debug_info    0x0000000000032143      0x96e /usr/lib/gcc/arm-none-eabi/9.2.1/../../../arm-none-eabi/lib/thumb/v7e-m+fp/hard/libnosys.a(isatty.o)
 .debug_info    0x0000000000032ab1      0x97c /usr/lib/gcc/arm-none-eabi/9.2.1/../../../arm-none-eabi/lib/thumb/v7e-m+fp/hard/libnosys.a(kill.o)
 .debug_info    0x000000000003342d      0x990 /usr/lib/gcc/arm-none-eabi/9.2.1/../../../arm-none-eabi/lib/thumb/v7e-m+fp/hard/libnosys.a(lseek.o)
 .debug_info    0x0000000000033dbd      0x990 /usr/lib/gcc/arm-none-eabi/9.2.1/../../../arm-none-eabi/lib/thumb/v7e-m+fp/hard/libnosys.a(read.o)
 .debug_info    0x000000000003474d       0x9d /usr/lib/gcc/arm-none-eabi/9.2.1/../../../arm-none-eabi/lib/thumb/v7e-m+fp/hard/libnosys.a(sbrk.o)
 .debug_info    0x00000000000347ea       0xa3 /usr/lib/gcc/arm-none-eabi/9.2.1/../../../arm-none-eabi/lib/thumb/v7e-m+fp/hard/libnosys.a(_exit.o)

.debug_abbrev   0x0000000000000000     0xa216
 .debug_abbrev  0x0000000000000000      0x1a7 sdram.o
 .debug_abbrev  0x00000000000001a7      0x3df lcd.o
 .debug_abbrev  0x0000000000000586      0x2c3 clock.o
 .debug_abbrev  0x0000000000000849      0x39b labo4.o
 .debug_abbrev  0x0000000000000be4      0x10c /home/juan/Documents/VIII_Semestre/Labo_Micros/Labos_con_Luisja/Laboratorio_Microcontroladores/Laboratorio_4/src/libopencm3-examples/libopencm3/lib/libopencm3_stm32f4.a(fmc_common_f47.o)
 .debug_abbrev  0x0000000000000cf0      0x116 /home/juan/Documents/VIII_Semestre/Labo_Micros/Labos_con_Luisja/Laboratorio_Microcontroladores/Laboratorio_4/src/libopencm3-examples/libopencm3/lib/libopencm3_stm32f4.a(gpio_common_all.o)
 .debug_abbrev  0x0000000000000e06       0xbf /home/juan/Documents/VIII_Semestre/Labo_Micros/Labos_con_Luisja/Laboratorio_Microcontroladores/Laboratorio_4/src/libopencm3-examples/libopencm3/lib/libopencm3_stm32f4.a(gpio_common_f0234.o)
 .debug_abbrev  0x0000000000000ec5      0x1da /home/juan/Documents/VIII_Semestre/Labo_Micros/Labos_con_Luisja/Laboratorio_Microcontroladores/Laboratorio_4/src/libopencm3-examples/libopencm3/lib/libopencm3_stm32f4.a(rcc_common_all.o)
 .debug_abbrev  0x000000000000109f      0x2d1 /home/juan/Documents/VIII_Semestre/Labo_Micros/Labos_con_Luisja/Laboratorio_Microcontroladores/Laboratorio_4/src/libopencm3-examples/libopencm3/lib/libopencm3_stm32f4.a(rcc.o)
 .debug_abbrev  0x0000000000001370      0x244 /home/juan/Documents/VIII_Semestre/Labo_Micros/Labos_con_Luisja/Laboratorio_Microcontroladores/Laboratorio_4/src/libopencm3-examples/libopencm3/lib/libopencm3_stm32f4.a(spi_common_all.o)
 .debug_abbrev  0x00000000000015b4      0x13e /home/juan/Documents/VIII_Semestre/Labo_Micros/Labos_con_Luisja/Laboratorio_Microcontroladores/Laboratorio_4/src/libopencm3-examples/libopencm3/lib/libopencm3_stm32f4.a(spi_common_v1.o)
 .debug_abbrev  0x00000000000016f2      0x182 /home/juan/Documents/VIII_Semestre/Labo_Micros/Labos_con_Luisja/Laboratorio_Microcontroladores/Laboratorio_4/src/libopencm3-examples/libopencm3/lib/libopencm3_stm32f4.a(usart_common_all.o)
 .debug_abbrev  0x0000000000001874      0x15b /home/juan/Documents/VIII_Semestre/Labo_Micros/Labos_con_Luisja/Laboratorio_Microcontroladores/Laboratorio_4/src/libopencm3-examples/libopencm3/lib/libopencm3_stm32f4.a(vector.o)
 .debug_abbrev  0x00000000000019cf      0x155 /home/juan/Documents/VIII_Semestre/Labo_Micros/Labos_con_Luisja/Laboratorio_Microcontroladores/Laboratorio_4/src/libopencm3-examples/libopencm3/lib/libopencm3_stm32f4.a(systick.o)
 .debug_abbrev  0x0000000000001b24       0x9a /home/juan/Documents/VIII_Semestre/Labo_Micros/Labos_con_Luisja/Laboratorio_Microcontroladores/Laboratorio_4/src/libopencm3-examples/libopencm3/lib/libopencm3_stm32f4.a(flash_common_all.o)
 .debug_abbrev  0x0000000000001bbe       0x56 /home/juan/Documents/VIII_Semestre/Labo_Micros/Labos_con_Luisja/Laboratorio_Microcontroladores/Laboratorio_4/src/libopencm3-examples/libopencm3/lib/libopencm3_stm32f4.a(flash_common_idcache.o)
 .debug_abbrev  0x0000000000001c14       0x9c /home/juan/Documents/VIII_Semestre/Labo_Micros/Labos_con_Luisja/Laboratorio_Microcontroladores/Laboratorio_4/src/libopencm3-examples/libopencm3/lib/libopencm3_stm32f4.a(pwr.o)
 .debug_abbrev  0x0000000000001cb0      0x2b2 /usr/lib/gcc/arm-none-eabi/9.2.1/../../../arm-none-eabi/lib/thumb/v7e-m+fp/hard/libc.a(lib_a-printf.o)
 .debug_abbrev  0x0000000000001f62      0x2c5 /usr/lib/gcc/arm-none-eabi/9.2.1/../../../arm-none-eabi/lib/thumb/v7e-m+fp/hard/libc.a(lib_a-puts.o)
 .debug_abbrev  0x0000000000002227       0x14 /usr/lib/gcc/arm-none-eabi/9.2.1/../../../arm-none-eabi/lib/thumb/v7e-m+fp/hard/libc.a(lib_a-strlen.o)
 .debug_abbrev  0x000000000000223b      0x466 /usr/lib/gcc/arm-none-eabi/9.2.1/../../../arm-none-eabi/lib/thumb/v7e-m+fp/hard/libc.a(lib_a-vfprintf.o)
 .debug_abbrev  0x00000000000026a1      0x283 /usr/lib/gcc/arm-none-eabi/9.2.1/../../../arm-none-eabi/lib/thumb/v7e-m+fp/hard/libc.a(lib_a-wsetup.o)
 .debug_abbrev  0x0000000000002924      0x343 /usr/lib/gcc/arm-none-eabi/9.2.1/../../../arm-none-eabi/lib/thumb/v7e-m+fp/hard/libc.a(lib_a-dtoa.o)
 .debug_abbrev  0x0000000000002c67      0x322 /usr/lib/gcc/arm-none-eabi/9.2.1/../../../arm-none-eabi/lib/thumb/v7e-m+fp/hard/libc.a(lib_a-fflush.o)
 .debug_abbrev  0x0000000000002f89      0x425 /usr/lib/gcc/arm-none-eabi/9.2.1/../../../arm-none-eabi/lib/thumb/v7e-m+fp/hard/libc.a(lib_a-findfp.o)
 .debug_abbrev  0x00000000000033ae      0x2c9 /usr/lib/gcc/arm-none-eabi/9.2.1/../../../arm-none-eabi/lib/thumb/v7e-m+fp/hard/libc.a(lib_a-freer.o)
 .debug_abbrev  0x0000000000003677      0x2ae /usr/lib/gcc/arm-none-eabi/9.2.1/../../../arm-none-eabi/lib/thumb/v7e-m+fp/hard/libc.a(lib_a-fvwrite.o)
 .debug_abbrev  0x0000000000003925      0x24e /usr/lib/gcc/arm-none-eabi/9.2.1/../../../arm-none-eabi/lib/thumb/v7e-m+fp/hard/libc.a(lib_a-fwalk.o)
 .debug_abbrev  0x0000000000003b73      0x1b8 /usr/lib/gcc/arm-none-eabi/9.2.1/../../../arm-none-eabi/lib/thumb/v7e-m+fp/hard/libc.a(lib_a-impure.o)
 .debug_abbrev  0x0000000000003d2b      0x27d /usr/lib/gcc/arm-none-eabi/9.2.1/../../../arm-none-eabi/lib/thumb/v7e-m+fp/hard/libc.a(lib_a-localeconv.o)
 .debug_abbrev  0x0000000000003fa8      0x334 /usr/lib/gcc/arm-none-eabi/9.2.1/../../../arm-none-eabi/lib/thumb/v7e-m+fp/hard/libc.a(lib_a-makebuf.o)
 .debug_abbrev  0x00000000000042dc      0x321 /usr/lib/gcc/arm-none-eabi/9.2.1/../../../arm-none-eabi/lib/thumb/v7e-m+fp/hard/libc.a(lib_a-mallocr.o)
 .debug_abbrev  0x00000000000045fd       0x14 /usr/lib/gcc/arm-none-eabi/9.2.1/../../../arm-none-eabi/lib/thumb/v7e-m+fp/hard/libc.a(lib_a-memchr.o)
 .debug_abbrev  0x0000000000004611       0x14 /usr/lib/gcc/arm-none-eabi/9.2.1/../../../arm-none-eabi/lib/thumb/v7e-m+fp/hard/libc.a(lib_a-memcpy.o)
 .debug_abbrev  0x0000000000004625      0x21c /usr/lib/gcc/arm-none-eabi/9.2.1/../../../arm-none-eabi/lib/thumb/v7e-m+fp/hard/libc.a(lib_a-memmove.o)
 .debug_abbrev  0x0000000000004841      0x217 /usr/lib/gcc/arm-none-eabi/9.2.1/../../../arm-none-eabi/lib/thumb/v7e-m+fp/hard/libc.a(lib_a-memset.o)
 .debug_abbrev  0x0000000000004a58      0x203 /usr/lib/gcc/arm-none-eabi/9.2.1/../../../arm-none-eabi/lib/thumb/v7e-m+fp/hard/libc.a(lib_a-mlock.o)
 .debug_abbrev  0x0000000000004c5b      0x4b7 /usr/lib/gcc/arm-none-eabi/9.2.1/../../../arm-none-eabi/lib/thumb/v7e-m+fp/hard/libc.a(lib_a-mprec.o)
 .debug_abbrev  0x0000000000005112      0x2a8 /usr/lib/gcc/arm-none-eabi/9.2.1/../../../arm-none-eabi/lib/thumb/v7e-m+fp/hard/libc.a(lib_a-reallocr.o)
 .debug_abbrev  0x00000000000053ba      0x250 /usr/lib/gcc/arm-none-eabi/9.2.1/../../../arm-none-eabi/lib/thumb/v7e-m+fp/hard/libc.a(lib_a-sbrkr.o)
 .debug_abbrev  0x000000000000560a      0x2ad /usr/lib/gcc/arm-none-eabi/9.2.1/../../../arm-none-eabi/lib/thumb/v7e-m+fp/hard/libc.a(lib_a-stdio.o)
 .debug_abbrev  0x00000000000058b7      0x468 /usr/lib/gcc/arm-none-eabi/9.2.1/../../../arm-none-eabi/lib/thumb/v7e-m+fp/hard/libc.a(lib_a-vfiprintf.o)
 .debug_abbrev  0x0000000000005d1f      0x22a /usr/lib/gcc/arm-none-eabi/9.2.1/../../../arm-none-eabi/lib/thumb/v7e-m+fp/hard/libc.a(lib_a-writer.o)
 .debug_abbrev  0x0000000000005f49      0x23d /usr/lib/gcc/arm-none-eabi/9.2.1/../../../arm-none-eabi/lib/thumb/v7e-m+fp/hard/libc.a(lib_a-assert.o)
 .debug_abbrev  0x0000000000006186      0x275 /usr/lib/gcc/arm-none-eabi/9.2.1/../../../arm-none-eabi/lib/thumb/v7e-m+fp/hard/libc.a(lib_a-callocr.o)
 .debug_abbrev  0x00000000000063fb      0x225 /usr/lib/gcc/arm-none-eabi/9.2.1/../../../arm-none-eabi/lib/thumb/v7e-m+fp/hard/libc.a(lib_a-closer.o)
 .debug_abbrev  0x0000000000006620      0x327 /usr/lib/gcc/arm-none-eabi/9.2.1/../../../arm-none-eabi/lib/thumb/v7e-m+fp/hard/libc.a(lib_a-fclose.o)
 .debug_abbrev  0x0000000000006947      0x255 /usr/lib/gcc/arm-none-eabi/9.2.1/../../../arm-none-eabi/lib/thumb/v7e-m+fp/hard/libc.a(lib_a-fiprintf.o)
 .debug_abbrev  0x0000000000006b9c      0x38c /usr/lib/gcc/arm-none-eabi/9.2.1/../../../arm-none-eabi/lib/thumb/v7e-m+fp/hard/libc.a(lib_a-fputwc.o)
 .debug_abbrev  0x0000000000006f28      0x239 /usr/lib/gcc/arm-none-eabi/9.2.1/../../../arm-none-eabi/lib/thumb/v7e-m+fp/hard/libc.a(lib_a-fstatr.o)
 .debug_abbrev  0x0000000000007161      0x225 /usr/lib/gcc/arm-none-eabi/9.2.1/../../../arm-none-eabi/lib/thumb/v7e-m+fp/hard/libc.a(lib_a-isattyr.o)
 .debug_abbrev  0x0000000000007386      0x2e8 /usr/lib/gcc/arm-none-eabi/9.2.1/../../../arm-none-eabi/lib/thumb/v7e-m+fp/hard/libc.a(lib_a-locale.o)
 .debug_abbrev  0x000000000000766e      0x239 /usr/lib/gcc/arm-none-eabi/9.2.1/../../../arm-none-eabi/lib/thumb/v7e-m+fp/hard/libc.a(lib_a-lseekr.o)
 .debug_abbrev  0x00000000000078a7      0x25f /usr/lib/gcc/arm-none-eabi/9.2.1/../../../arm-none-eabi/lib/thumb/v7e-m+fp/hard/libc.a(lib_a-mbtowc_r.o)
 .debug_abbrev  0x0000000000007b06      0x225 /usr/lib/gcc/arm-none-eabi/9.2.1/../../../arm-none-eabi/lib/thumb/v7e-m+fp/hard/libc.a(lib_a-readr.o)
 .debug_abbrev  0x0000000000007d2b      0x2ba /usr/lib/gcc/arm-none-eabi/9.2.1/../../../arm-none-eabi/lib/thumb/v7e-m+fp/hard/libc.a(lib_a-reent.o)
 .debug_abbrev  0x0000000000007fe5       0x14 /usr/lib/gcc/arm-none-eabi/9.2.1/../../../arm-none-eabi/lib/thumb/v7e-m+fp/hard/libc.a(lib_a-strcmp.o)
 .debug_abbrev  0x0000000000007ff9      0x2c3 /usr/lib/gcc/arm-none-eabi/9.2.1/../../../arm-none-eabi/lib/thumb/v7e-m+fp/hard/libc.a(lib_a-wbuf.o)
 .debug_abbrev  0x00000000000082bc      0x256 /usr/lib/gcc/arm-none-eabi/9.2.1/../../../arm-none-eabi/lib/thumb/v7e-m+fp/hard/libc.a(lib_a-wcrtomb.o)
 .debug_abbrev  0x0000000000008512      0x269 /usr/lib/gcc/arm-none-eabi/9.2.1/../../../arm-none-eabi/lib/thumb/v7e-m+fp/hard/libc.a(lib_a-wctomb_r.o)
 .debug_abbrev  0x000000000000877b      0x20b /usr/lib/gcc/arm-none-eabi/9.2.1/../../../arm-none-eabi/lib/thumb/v7e-m+fp/hard/libc.a(lib_a-abort.o)
 .debug_abbrev  0x0000000000008986      0x1b6 /usr/lib/gcc/arm-none-eabi/9.2.1/../../../arm-none-eabi/lib/thumb/v7e-m+fp/hard/libc.a(lib_a-ctype_.o)
 .debug_abbrev  0x0000000000008b3c      0x36b /usr/lib/gcc/arm-none-eabi/9.2.1/../../../arm-none-eabi/lib/thumb/v7e-m+fp/hard/libc.a(lib_a-signal.o)
 .debug_abbrev  0x0000000000008ea7      0x255 /usr/lib/gcc/arm-none-eabi/9.2.1/../../../arm-none-eabi/lib/thumb/v7e-m+fp/hard/libc.a(lib_a-signalr.o)
 .debug_abbrev  0x00000000000090fc       0x14 /usr/lib/gcc/arm-none-eabi/9.2.1/thumb/v7e-m+fp/hard/libgcc.a(_arm_addsubdf3.o)
 .debug_abbrev  0x0000000000009110       0x14 /usr/lib/gcc/arm-none-eabi/9.2.1/thumb/v7e-m+fp/hard/libgcc.a(_arm_muldivdf3.o)
 .debug_abbrev  0x0000000000009124       0x14 /usr/lib/gcc/arm-none-eabi/9.2.1/thumb/v7e-m+fp/hard/libgcc.a(_arm_cmpdf2.o)
 .debug_abbrev  0x0000000000009138       0x14 /usr/lib/gcc/arm-none-eabi/9.2.1/thumb/v7e-m+fp/hard/libgcc.a(_arm_unorddf2.o)
 .debug_abbrev  0x000000000000914c       0x14 /usr/lib/gcc/arm-none-eabi/9.2.1/thumb/v7e-m+fp/hard/libgcc.a(_arm_fixdfsi.o)
 .debug_abbrev  0x0000000000009160       0x14 /usr/lib/gcc/arm-none-eabi/9.2.1/thumb/v7e-m+fp/hard/libgcc.a(_aeabi_uldivmod.o)
 .debug_abbrev  0x0000000000009174      0x1c2 /usr/lib/gcc/arm-none-eabi/9.2.1/thumb/v7e-m+fp/hard/libgcc.a(_udivmoddi4.o)
 .debug_abbrev  0x0000000000009336       0x14 /usr/lib/gcc/arm-none-eabi/9.2.1/thumb/v7e-m+fp/hard/libgcc.a(_dvmd_tls.o)
 .debug_abbrev  0x000000000000934a      0x1ea /usr/lib/gcc/arm-none-eabi/9.2.1/../../../arm-none-eabi/lib/thumb/v7e-m+fp/hard/libnosys.a(close.o)
 .debug_abbrev  0x0000000000009534      0x1fd /usr/lib/gcc/arm-none-eabi/9.2.1/../../../arm-none-eabi/lib/thumb/v7e-m+fp/hard/libnosys.a(fstat.o)
 .debug_abbrev  0x0000000000009731      0x1d6 /usr/lib/gcc/arm-none-eabi/9.2.1/../../../arm-none-eabi/lib/thumb/v7e-m+fp/hard/libnosys.a(getpid.o)
 .debug_abbrev  0x0000000000009907      0x1ea /usr/lib/gcc/arm-none-eabi/9.2.1/../../../arm-none-eabi/lib/thumb/v7e-m+fp/hard/libnosys.a(isatty.o)
 .debug_abbrev  0x0000000000009af1      0x1fb /usr/lib/gcc/arm-none-eabi/9.2.1/../../../arm-none-eabi/lib/thumb/v7e-m+fp/hard/libnosys.a(kill.o)
 .debug_abbrev  0x0000000000009cec      0x20f /usr/lib/gcc/arm-none-eabi/9.2.1/../../../arm-none-eabi/lib/thumb/v7e-m+fp/hard/libnosys.a(lseek.o)
 .debug_abbrev  0x0000000000009efb      0x20f /usr/lib/gcc/arm-none-eabi/9.2.1/../../../arm-none-eabi/lib/thumb/v7e-m+fp/hard/libnosys.a(read.o)
 .debug_abbrev  0x000000000000a10a       0xa2 /usr/lib/gcc/arm-none-eabi/9.2.1/../../../arm-none-eabi/lib/thumb/v7e-m+fp/hard/libnosys.a(sbrk.o)
 .debug_abbrev  0x000000000000a1ac       0x6a /usr/lib/gcc/arm-none-eabi/9.2.1/../../../arm-none-eabi/lib/thumb/v7e-m+fp/hard/libnosys.a(_exit.o)

.debug_loc      0x0000000000000000    0x14884
 .debug_loc     0x0000000000000000       0xde sdram.o
 .debug_loc     0x00000000000000de      0x320 lcd.o
 .debug_loc     0x00000000000003fe      0x4d0 labo4.o
 .debug_loc     0x00000000000008ce      0x590 /home/juan/Documents/VIII_Semestre/Labo_Micros/Labos_con_Luisja/Laboratorio_Microcontroladores/Laboratorio_4/src/libopencm3-examples/libopencm3/lib/libopencm3_stm32f4.a(fmc_common_f47.o)
 .debug_loc     0x0000000000000e5e       0xbe /home/juan/Documents/VIII_Semestre/Labo_Micros/Labos_con_Luisja/Laboratorio_Microcontroladores/Laboratorio_4/src/libopencm3-examples/libopencm3/lib/libopencm3_stm32f4.a(gpio_common_all.o)
 .debug_loc     0x0000000000000f1c      0x14d /home/juan/Documents/VIII_Semestre/Labo_Micros/Labos_con_Luisja/Laboratorio_Microcontroladores/Laboratorio_4/src/libopencm3-examples/libopencm3/lib/libopencm3_stm32f4.a(gpio_common_f0234.o)
 .debug_loc     0x0000000000001069      0x120 /home/juan/Documents/VIII_Semestre/Labo_Micros/Labos_con_Luisja/Laboratorio_Microcontroladores/Laboratorio_4/src/libopencm3-examples/libopencm3/lib/libopencm3_stm32f4.a(rcc_common_all.o)
 .debug_loc     0x0000000000001189      0x8c7 /home/juan/Documents/VIII_Semestre/Labo_Micros/Labos_con_Luisja/Laboratorio_Microcontroladores/Laboratorio_4/src/libopencm3-examples/libopencm3/lib/libopencm3_stm32f4.a(rcc.o)
 .debug_loc     0x0000000000001a50      0x226 /home/juan/Documents/VIII_Semestre/Labo_Micros/Labos_con_Luisja/Laboratorio_Microcontroladores/Laboratorio_4/src/libopencm3-examples/libopencm3/lib/libopencm3_stm32f4.a(spi_common_all.o)
 .debug_loc     0x0000000000001c76      0x149 /home/juan/Documents/VIII_Semestre/Labo_Micros/Labos_con_Luisja/Laboratorio_Microcontroladores/Laboratorio_4/src/libopencm3-examples/libopencm3/lib/libopencm3_stm32f4.a(spi_common_v1.o)
 .debug_loc     0x0000000000001dbf      0x206 /home/juan/Documents/VIII_Semestre/Labo_Micros/Labos_con_Luisja/Laboratorio_Microcontroladores/Laboratorio_4/src/libopencm3-examples/libopencm3/lib/libopencm3_stm32f4.a(usart_common_all.o)
 .debug_loc     0x0000000000001fc5      0x128 /home/juan/Documents/VIII_Semestre/Labo_Micros/Labos_con_Luisja/Laboratorio_Microcontroladores/Laboratorio_4/src/libopencm3-examples/libopencm3/lib/libopencm3_stm32f4.a(vector.o)
 .debug_loc     0x00000000000020ed      0x192 /home/juan/Documents/VIII_Semestre/Labo_Micros/Labos_con_Luisja/Laboratorio_Microcontroladores/Laboratorio_4/src/libopencm3-examples/libopencm3/lib/libopencm3_stm32f4.a(systick.o)
 .debug_loc     0x000000000000227f       0x47 /home/juan/Documents/VIII_Semestre/Labo_Micros/Labos_con_Luisja/Laboratorio_Microcontroladores/Laboratorio_4/src/libopencm3-examples/libopencm3/lib/libopencm3_stm32f4.a(flash_common_all.o)
 .debug_loc     0x00000000000022c6       0x47 /home/juan/Documents/VIII_Semestre/Labo_Micros/Labos_con_Luisja/Laboratorio_Microcontroladores/Laboratorio_4/src/libopencm3-examples/libopencm3/lib/libopencm3_stm32f4.a(pwr.o)
 .debug_loc     0x000000000000230d       0x64 /usr/lib/gcc/arm-none-eabi/9.2.1/../../../arm-none-eabi/lib/thumb/v7e-m+fp/hard/libc.a(lib_a-printf.o)
 .debug_loc     0x0000000000002371      0x11a /usr/lib/gcc/arm-none-eabi/9.2.1/../../../arm-none-eabi/lib/thumb/v7e-m+fp/hard/libc.a(lib_a-puts.o)
 .debug_loc     0x000000000000248b     0x364f /usr/lib/gcc/arm-none-eabi/9.2.1/../../../arm-none-eabi/lib/thumb/v7e-m+fp/hard/libc.a(lib_a-vfprintf.o)
 .debug_loc     0x0000000000005ada       0xba /usr/lib/gcc/arm-none-eabi/9.2.1/../../../arm-none-eabi/lib/thumb/v7e-m+fp/hard/libc.a(lib_a-wsetup.o)
 .debug_loc     0x0000000000005b94     0x305a /usr/lib/gcc/arm-none-eabi/9.2.1/../../../arm-none-eabi/lib/thumb/v7e-m+fp/hard/libc.a(lib_a-dtoa.o)
 .debug_loc     0x0000000000008bee      0x334 /usr/lib/gcc/arm-none-eabi/9.2.1/../../../arm-none-eabi/lib/thumb/v7e-m+fp/hard/libc.a(lib_a-fflush.o)
 .debug_loc     0x0000000000008f22      0x32c /usr/lib/gcc/arm-none-eabi/9.2.1/../../../arm-none-eabi/lib/thumb/v7e-m+fp/hard/libc.a(lib_a-findfp.o)
 .debug_loc     0x000000000000924e      0x6f8 /usr/lib/gcc/arm-none-eabi/9.2.1/../../../arm-none-eabi/lib/thumb/v7e-m+fp/hard/libc.a(lib_a-freer.o)
 .debug_loc     0x0000000000009946      0x669 /usr/lib/gcc/arm-none-eabi/9.2.1/../../../arm-none-eabi/lib/thumb/v7e-m+fp/hard/libc.a(lib_a-fvwrite.o)
 .debug_loc     0x0000000000009faf      0x24f /usr/lib/gcc/arm-none-eabi/9.2.1/../../../arm-none-eabi/lib/thumb/v7e-m+fp/hard/libc.a(lib_a-fwalk.o)
 .debug_loc     0x000000000000a1fe       0x6f /usr/lib/gcc/arm-none-eabi/9.2.1/../../../arm-none-eabi/lib/thumb/v7e-m+fp/hard/libc.a(lib_a-localeconv.o)
 .debug_loc     0x000000000000a26d      0x192 /usr/lib/gcc/arm-none-eabi/9.2.1/../../../arm-none-eabi/lib/thumb/v7e-m+fp/hard/libc.a(lib_a-makebuf.o)
 .debug_loc     0x000000000000a3ff      0xf44 /usr/lib/gcc/arm-none-eabi/9.2.1/../../../arm-none-eabi/lib/thumb/v7e-m+fp/hard/libc.a(lib_a-mallocr.o)
 .debug_loc     0x000000000000b343      0x2f1 /usr/lib/gcc/arm-none-eabi/9.2.1/../../../arm-none-eabi/lib/thumb/v7e-m+fp/hard/libc.a(lib_a-memmove.o)
 .debug_loc     0x000000000000b634      0x231 /usr/lib/gcc/arm-none-eabi/9.2.1/../../../arm-none-eabi/lib/thumb/v7e-m+fp/hard/libc.a(lib_a-memset.o)
 .debug_loc     0x000000000000b865     0x234e /usr/lib/gcc/arm-none-eabi/9.2.1/../../../arm-none-eabi/lib/thumb/v7e-m+fp/hard/libc.a(lib_a-mprec.o)
 .debug_loc     0x000000000000dbb3     0x12c8 /usr/lib/gcc/arm-none-eabi/9.2.1/../../../arm-none-eabi/lib/thumb/v7e-m+fp/hard/libc.a(lib_a-reallocr.o)
 .debug_loc     0x000000000000ee7b       0x6c /usr/lib/gcc/arm-none-eabi/9.2.1/../../../arm-none-eabi/lib/thumb/v7e-m+fp/hard/libc.a(lib_a-sbrkr.o)
 .debug_loc     0x000000000000eee7      0x393 /usr/lib/gcc/arm-none-eabi/9.2.1/../../../arm-none-eabi/lib/thumb/v7e-m+fp/hard/libc.a(lib_a-stdio.o)
 .debug_loc     0x000000000000f27a     0x25f3 /usr/lib/gcc/arm-none-eabi/9.2.1/../../../arm-none-eabi/lib/thumb/v7e-m+fp/hard/libc.a(lib_a-vfiprintf.o)
 .debug_loc     0x000000000001186d       0xdd /usr/lib/gcc/arm-none-eabi/9.2.1/../../../arm-none-eabi/lib/thumb/v7e-m+fp/hard/libc.a(lib_a-writer.o)
 .debug_loc     0x000000000001194a      0x15c /usr/lib/gcc/arm-none-eabi/9.2.1/../../../arm-none-eabi/lib/thumb/v7e-m+fp/hard/libc.a(lib_a-assert.o)
 .debug_loc     0x0000000000011aa6      0x2d6 /usr/lib/gcc/arm-none-eabi/9.2.1/../../../arm-none-eabi/lib/thumb/v7e-m+fp/hard/libc.a(lib_a-callocr.o)
 .debug_loc     0x0000000000011d7c       0x6c /usr/lib/gcc/arm-none-eabi/9.2.1/../../../arm-none-eabi/lib/thumb/v7e-m+fp/hard/libc.a(lib_a-closer.o)
 .debug_loc     0x0000000000011de8      0x179 /usr/lib/gcc/arm-none-eabi/9.2.1/../../../arm-none-eabi/lib/thumb/v7e-m+fp/hard/libc.a(lib_a-fclose.o)
 .debug_loc     0x0000000000011f61       0xa6 /usr/lib/gcc/arm-none-eabi/9.2.1/../../../arm-none-eabi/lib/thumb/v7e-m+fp/hard/libc.a(lib_a-fiprintf.o)
 .debug_loc     0x0000000000012007      0x3cc /usr/lib/gcc/arm-none-eabi/9.2.1/../../../arm-none-eabi/lib/thumb/v7e-m+fp/hard/libc.a(lib_a-fputwc.o)
 .debug_loc     0x00000000000123d3       0xab /usr/lib/gcc/arm-none-eabi/9.2.1/../../../arm-none-eabi/lib/thumb/v7e-m+fp/hard/libc.a(lib_a-fstatr.o)
 .debug_loc     0x000000000001247e       0x6c /usr/lib/gcc/arm-none-eabi/9.2.1/../../../arm-none-eabi/lib/thumb/v7e-m+fp/hard/libc.a(lib_a-isattyr.o)
 .debug_loc     0x00000000000124ea      0x189 /usr/lib/gcc/arm-none-eabi/9.2.1/../../../arm-none-eabi/lib/thumb/v7e-m+fp/hard/libc.a(lib_a-locale.o)
 .debug_loc     0x0000000000012673       0xdd /usr/lib/gcc/arm-none-eabi/9.2.1/../../../arm-none-eabi/lib/thumb/v7e-m+fp/hard/libc.a(lib_a-lseekr.o)
 .debug_loc     0x0000000000012750      0x21d /usr/lib/gcc/arm-none-eabi/9.2.1/../../../arm-none-eabi/lib/thumb/v7e-m+fp/hard/libc.a(lib_a-mbtowc_r.o)
 .debug_loc     0x000000000001296d       0xdd /usr/lib/gcc/arm-none-eabi/9.2.1/../../../arm-none-eabi/lib/thumb/v7e-m+fp/hard/libc.a(lib_a-readr.o)
 .debug_loc     0x0000000000012a4a      0x152 /usr/lib/gcc/arm-none-eabi/9.2.1/../../../arm-none-eabi/lib/thumb/v7e-m+fp/hard/libc.a(lib_a-reent.o)
 .debug_loc     0x0000000000012b9c      0x1b0 /usr/lib/gcc/arm-none-eabi/9.2.1/../../../arm-none-eabi/lib/thumb/v7e-m+fp/hard/libc.a(lib_a-wbuf.o)
 .debug_loc     0x0000000000012d4c      0x2b1 /usr/lib/gcc/arm-none-eabi/9.2.1/../../../arm-none-eabi/lib/thumb/v7e-m+fp/hard/libc.a(lib_a-wcrtomb.o)
 .debug_loc     0x0000000000012ffd      0x13a /usr/lib/gcc/arm-none-eabi/9.2.1/../../../arm-none-eabi/lib/thumb/v7e-m+fp/hard/libc.a(lib_a-wctomb_r.o)
 .debug_loc     0x0000000000013137      0x560 /usr/lib/gcc/arm-none-eabi/9.2.1/../../../arm-none-eabi/lib/thumb/v7e-m+fp/hard/libc.a(lib_a-signal.o)
 .debug_loc     0x0000000000013697       0xd0 /usr/lib/gcc/arm-none-eabi/9.2.1/../../../arm-none-eabi/lib/thumb/v7e-m+fp/hard/libc.a(lib_a-signalr.o)
 .debug_loc     0x0000000000013767      0xfa2 /usr/lib/gcc/arm-none-eabi/9.2.1/thumb/v7e-m+fp/hard/libgcc.a(_udivmoddi4.o)
 .debug_loc     0x0000000000014709       0x25 /usr/lib/gcc/arm-none-eabi/9.2.1/../../../arm-none-eabi/lib/thumb/v7e-m+fp/hard/libnosys.a(close.o)
 .debug_loc     0x000000000001472e       0x25 /usr/lib/gcc/arm-none-eabi/9.2.1/../../../arm-none-eabi/lib/thumb/v7e-m+fp/hard/libnosys.a(fstat.o)
 .debug_loc     0x0000000000014753       0x25 /usr/lib/gcc/arm-none-eabi/9.2.1/../../../arm-none-eabi/lib/thumb/v7e-m+fp/hard/libnosys.a(isatty.o)
 .debug_loc     0x0000000000014778       0x25 /usr/lib/gcc/arm-none-eabi/9.2.1/../../../arm-none-eabi/lib/thumb/v7e-m+fp/hard/libnosys.a(kill.o)
 .debug_loc     0x000000000001479d       0x4a /usr/lib/gcc/arm-none-eabi/9.2.1/../../../arm-none-eabi/lib/thumb/v7e-m+fp/hard/libnosys.a(lseek.o)
 .debug_loc     0x00000000000147e7       0x4a /usr/lib/gcc/arm-none-eabi/9.2.1/../../../arm-none-eabi/lib/thumb/v7e-m+fp/hard/libnosys.a(read.o)
 .debug_loc     0x0000000000014831       0x3e /usr/lib/gcc/arm-none-eabi/9.2.1/../../../arm-none-eabi/lib/thumb/v7e-m+fp/hard/libnosys.a(sbrk.o)
 .debug_loc     0x000000000001486f       0x15 /usr/lib/gcc/arm-none-eabi/9.2.1/../../../arm-none-eabi/lib/thumb/v7e-m+fp/hard/libnosys.a(_exit.o)

.debug_aranges  0x0000000000000000      0xe98
 .debug_aranges
                0x0000000000000000       0x20 sdram.o
 .debug_aranges
                0x0000000000000020       0x38 lcd.o
 .debug_aranges
                0x0000000000000058       0x38 clock.o
 .debug_aranges
                0x0000000000000090       0x38 labo4.o
 .debug_aranges
                0x00000000000000c8       0x28 /home/juan/Documents/VIII_Semestre/Labo_Micros/Labos_con_Luisja/Laboratorio_Microcontroladores/Laboratorio_4/src/libopencm3-examples/libopencm3/lib/libopencm3_stm32f4.a(fmc_common_f47.o)
 .debug_aranges
                0x00000000000000f0       0x50 /home/juan/Documents/VIII_Semestre/Labo_Micros/Labos_con_Luisja/Laboratorio_Microcontroladores/Laboratorio_4/src/libopencm3-examples/libopencm3/lib/libopencm3_stm32f4.a(gpio_common_all.o)
 .debug_aranges
                0x0000000000000140       0x30 /home/juan/Documents/VIII_Semestre/Labo_Micros/Labos_con_Luisja/Laboratorio_Microcontroladores/Laboratorio_4/src/libopencm3-examples/libopencm3/lib/libopencm3_stm32f4.a(gpio_common_f0234.o)
 .debug_aranges
                0x0000000000000170       0x60 /home/juan/Documents/VIII_Semestre/Labo_Micros/Labos_con_Luisja/Laboratorio_Microcontroladores/Laboratorio_4/src/libopencm3-examples/libopencm3/lib/libopencm3_stm32f4.a(rcc_common_all.o)
 .debug_aranges
                0x00000000000001d0      0x110 /home/juan/Documents/VIII_Semestre/Labo_Micros/Labos_con_Luisja/Laboratorio_Microcontroladores/Laboratorio_4/src/libopencm3-examples/libopencm3/lib/libopencm3_stm32f4.a(rcc.o)
 .debug_aranges
                0x00000000000002e0      0x178 /home/juan/Documents/VIII_Semestre/Labo_Micros/Labos_con_Luisja/Laboratorio_Microcontroladores/Laboratorio_4/src/libopencm3-examples/libopencm3/lib/libopencm3_stm32f4.a(spi_common_all.o)
 .debug_aranges
                0x0000000000000458       0x30 /home/juan/Documents/VIII_Semestre/Labo_Micros/Labos_con_Luisja/Laboratorio_Microcontroladores/Laboratorio_4/src/libopencm3-examples/libopencm3/lib/libopencm3_stm32f4.a(spi_common_v1.o)
 .debug_aranges
                0x0000000000000488       0xd8 /home/juan/Documents/VIII_Semestre/Labo_Micros/Labos_con_Luisja/Laboratorio_Microcontroladores/Laboratorio_4/src/libopencm3-examples/libopencm3/lib/libopencm3_stm32f4.a(usart_common_all.o)
 .debug_aranges
                0x0000000000000560       0x30 /home/juan/Documents/VIII_Semestre/Labo_Micros/Labos_con_Luisja/Laboratorio_Microcontroladores/Laboratorio_4/src/libopencm3-examples/libopencm3/lib/libopencm3_stm32f4.a(vector.o)
 .debug_aranges
                0x0000000000000590       0x78 /home/juan/Documents/VIII_Semestre/Labo_Micros/Labos_con_Luisja/Laboratorio_Microcontroladores/Laboratorio_4/src/libopencm3-examples/libopencm3/lib/libopencm3_stm32f4.a(systick.o)
 .debug_aranges
                0x0000000000000608       0x38 /home/juan/Documents/VIII_Semestre/Labo_Micros/Labos_con_Luisja/Laboratorio_Microcontroladores/Laboratorio_4/src/libopencm3-examples/libopencm3/lib/libopencm3_stm32f4.a(flash_common_all.o)
 .debug_aranges
                0x0000000000000640       0x48 /home/juan/Documents/VIII_Semestre/Labo_Micros/Labos_con_Luisja/Laboratorio_Microcontroladores/Laboratorio_4/src/libopencm3-examples/libopencm3/lib/libopencm3_stm32f4.a(flash_common_idcache.o)
 .debug_aranges
                0x0000000000000688       0x20 /home/juan/Documents/VIII_Semestre/Labo_Micros/Labos_con_Luisja/Laboratorio_Microcontroladores/Laboratorio_4/src/libopencm3-examples/libopencm3/lib/libopencm3_stm32f4.a(pwr.o)
 .debug_aranges
                0x00000000000006a8       0x20 /usr/lib/gcc/arm-none-eabi/9.2.1/../../../arm-none-eabi/lib/thumb/v7e-m+fp/hard/libc.a(lib_a-printf.o)
 .debug_aranges
                0x00000000000006c8       0x20 /usr/lib/gcc/arm-none-eabi/9.2.1/../../../arm-none-eabi/lib/thumb/v7e-m+fp/hard/libc.a(lib_a-puts.o)
 .debug_aranges
                0x00000000000006e8       0x20 /usr/lib/gcc/arm-none-eabi/9.2.1/../../../arm-none-eabi/lib/thumb/v7e-m+fp/hard/libc.a(lib_a-strlen.o)
 .debug_aranges
                0x0000000000000708       0x20 /usr/lib/gcc/arm-none-eabi/9.2.1/../../../arm-none-eabi/lib/thumb/v7e-m+fp/hard/libc.a(lib_a-vfprintf.o)
 .debug_aranges
                0x0000000000000728       0x20 /usr/lib/gcc/arm-none-eabi/9.2.1/../../../arm-none-eabi/lib/thumb/v7e-m+fp/hard/libc.a(lib_a-wsetup.o)
 .debug_aranges
                0x0000000000000748       0x20 /usr/lib/gcc/arm-none-eabi/9.2.1/../../../arm-none-eabi/lib/thumb/v7e-m+fp/hard/libc.a(lib_a-dtoa.o)
 .debug_aranges
                0x0000000000000768       0x20 /usr/lib/gcc/arm-none-eabi/9.2.1/../../../arm-none-eabi/lib/thumb/v7e-m+fp/hard/libc.a(lib_a-fflush.o)
 .debug_aranges
                0x0000000000000788       0x20 /usr/lib/gcc/arm-none-eabi/9.2.1/../../../arm-none-eabi/lib/thumb/v7e-m+fp/hard/libc.a(lib_a-findfp.o)
 .debug_aranges
                0x00000000000007a8       0x20 /usr/lib/gcc/arm-none-eabi/9.2.1/../../../arm-none-eabi/lib/thumb/v7e-m+fp/hard/libc.a(lib_a-freer.o)
 .debug_aranges
                0x00000000000007c8       0x20 /usr/lib/gcc/arm-none-eabi/9.2.1/../../../arm-none-eabi/lib/thumb/v7e-m+fp/hard/libc.a(lib_a-fvwrite.o)
 .debug_aranges
                0x00000000000007e8       0x20 /usr/lib/gcc/arm-none-eabi/9.2.1/../../../arm-none-eabi/lib/thumb/v7e-m+fp/hard/libc.a(lib_a-fwalk.o)
 .debug_aranges
                0x0000000000000808       0x18 /usr/lib/gcc/arm-none-eabi/9.2.1/../../../arm-none-eabi/lib/thumb/v7e-m+fp/hard/libc.a(lib_a-impure.o)
 .debug_aranges
                0x0000000000000820       0x20 /usr/lib/gcc/arm-none-eabi/9.2.1/../../../arm-none-eabi/lib/thumb/v7e-m+fp/hard/libc.a(lib_a-localeconv.o)
 .debug_aranges
                0x0000000000000840       0x20 /usr/lib/gcc/arm-none-eabi/9.2.1/../../../arm-none-eabi/lib/thumb/v7e-m+fp/hard/libc.a(lib_a-makebuf.o)
 .debug_aranges
                0x0000000000000860       0x20 /usr/lib/gcc/arm-none-eabi/9.2.1/../../../arm-none-eabi/lib/thumb/v7e-m+fp/hard/libc.a(lib_a-mallocr.o)
 .debug_aranges
                0x0000000000000880       0x20 /usr/lib/gcc/arm-none-eabi/9.2.1/../../../arm-none-eabi/lib/thumb/v7e-m+fp/hard/libc.a(lib_a-memchr.o)
 .debug_aranges
                0x00000000000008a0       0x20 /usr/lib/gcc/arm-none-eabi/9.2.1/../../../arm-none-eabi/lib/thumb/v7e-m+fp/hard/libc.a(lib_a-memcpy.o)
 .debug_aranges
                0x00000000000008c0       0x20 /usr/lib/gcc/arm-none-eabi/9.2.1/../../../arm-none-eabi/lib/thumb/v7e-m+fp/hard/libc.a(lib_a-memmove.o)
 .debug_aranges
                0x00000000000008e0       0x20 /usr/lib/gcc/arm-none-eabi/9.2.1/../../../arm-none-eabi/lib/thumb/v7e-m+fp/hard/libc.a(lib_a-memset.o)
 .debug_aranges
                0x0000000000000900       0x20 /usr/lib/gcc/arm-none-eabi/9.2.1/../../../arm-none-eabi/lib/thumb/v7e-m+fp/hard/libc.a(lib_a-mlock.o)
 .debug_aranges
                0x0000000000000920       0x20 /usr/lib/gcc/arm-none-eabi/9.2.1/../../../arm-none-eabi/lib/thumb/v7e-m+fp/hard/libc.a(lib_a-mprec.o)
 .debug_aranges
                0x0000000000000940       0x20 /usr/lib/gcc/arm-none-eabi/9.2.1/../../../arm-none-eabi/lib/thumb/v7e-m+fp/hard/libc.a(lib_a-reallocr.o)
 .debug_aranges
                0x0000000000000960       0x20 /usr/lib/gcc/arm-none-eabi/9.2.1/../../../arm-none-eabi/lib/thumb/v7e-m+fp/hard/libc.a(lib_a-sbrkr.o)
 .debug_aranges
                0x0000000000000980       0x20 /usr/lib/gcc/arm-none-eabi/9.2.1/../../../arm-none-eabi/lib/thumb/v7e-m+fp/hard/libc.a(lib_a-stdio.o)
 .debug_aranges
                0x00000000000009a0       0x20 /usr/lib/gcc/arm-none-eabi/9.2.1/../../../arm-none-eabi/lib/thumb/v7e-m+fp/hard/libc.a(lib_a-vfiprintf.o)
 .debug_aranges
                0x00000000000009c0       0x20 /usr/lib/gcc/arm-none-eabi/9.2.1/../../../arm-none-eabi/lib/thumb/v7e-m+fp/hard/libc.a(lib_a-writer.o)
 .debug_aranges
                0x00000000000009e0       0x20 /usr/lib/gcc/arm-none-eabi/9.2.1/../../../arm-none-eabi/lib/thumb/v7e-m+fp/hard/libc.a(lib_a-assert.o)
 .debug_aranges
                0x0000000000000a00       0x20 /usr/lib/gcc/arm-none-eabi/9.2.1/../../../arm-none-eabi/lib/thumb/v7e-m+fp/hard/libc.a(lib_a-callocr.o)
 .debug_aranges
                0x0000000000000a20       0x20 /usr/lib/gcc/arm-none-eabi/9.2.1/../../../arm-none-eabi/lib/thumb/v7e-m+fp/hard/libc.a(lib_a-closer.o)
 .debug_aranges
                0x0000000000000a40       0x20 /usr/lib/gcc/arm-none-eabi/9.2.1/../../../arm-none-eabi/lib/thumb/v7e-m+fp/hard/libc.a(lib_a-fclose.o)
 .debug_aranges
                0x0000000000000a60       0x20 /usr/lib/gcc/arm-none-eabi/9.2.1/../../../arm-none-eabi/lib/thumb/v7e-m+fp/hard/libc.a(lib_a-fiprintf.o)
 .debug_aranges
                0x0000000000000a80       0x20 /usr/lib/gcc/arm-none-eabi/9.2.1/../../../arm-none-eabi/lib/thumb/v7e-m+fp/hard/libc.a(lib_a-fputwc.o)
 .debug_aranges
                0x0000000000000aa0       0x20 /usr/lib/gcc/arm-none-eabi/9.2.1/../../../arm-none-eabi/lib/thumb/v7e-m+fp/hard/libc.a(lib_a-fstatr.o)
 .debug_aranges
                0x0000000000000ac0       0x20 /usr/lib/gcc/arm-none-eabi/9.2.1/../../../arm-none-eabi/lib/thumb/v7e-m+fp/hard/libc.a(lib_a-isattyr.o)
 .debug_aranges
                0x0000000000000ae0       0x20 /usr/lib/gcc/arm-none-eabi/9.2.1/../../../arm-none-eabi/lib/thumb/v7e-m+fp/hard/libc.a(lib_a-locale.o)
 .debug_aranges
                0x0000000000000b00       0x20 /usr/lib/gcc/arm-none-eabi/9.2.1/../../../arm-none-eabi/lib/thumb/v7e-m+fp/hard/libc.a(lib_a-lseekr.o)
 .debug_aranges
                0x0000000000000b20       0x20 /usr/lib/gcc/arm-none-eabi/9.2.1/../../../arm-none-eabi/lib/thumb/v7e-m+fp/hard/libc.a(lib_a-mbtowc_r.o)
 .debug_aranges
                0x0000000000000b40       0x20 /usr/lib/gcc/arm-none-eabi/9.2.1/../../../arm-none-eabi/lib/thumb/v7e-m+fp/hard/libc.a(lib_a-readr.o)
 .debug_aranges
                0x0000000000000b60       0x20 /usr/lib/gcc/arm-none-eabi/9.2.1/../../../arm-none-eabi/lib/thumb/v7e-m+fp/hard/libc.a(lib_a-reent.o)
 .debug_aranges
                0x0000000000000b80       0x20 /usr/lib/gcc/arm-none-eabi/9.2.1/../../../arm-none-eabi/lib/thumb/v7e-m+fp/hard/libc.a(lib_a-strcmp.o)
 .debug_aranges
                0x0000000000000ba0       0x20 /usr/lib/gcc/arm-none-eabi/9.2.1/../../../arm-none-eabi/lib/thumb/v7e-m+fp/hard/libc.a(lib_a-wbuf.o)
 .debug_aranges
                0x0000000000000bc0       0x20 /usr/lib/gcc/arm-none-eabi/9.2.1/../../../arm-none-eabi/lib/thumb/v7e-m+fp/hard/libc.a(lib_a-wcrtomb.o)
 .debug_aranges
                0x0000000000000be0       0x20 /usr/lib/gcc/arm-none-eabi/9.2.1/../../../arm-none-eabi/lib/thumb/v7e-m+fp/hard/libc.a(lib_a-wctomb_r.o)
 .debug_aranges
                0x0000000000000c00       0x20 /usr/lib/gcc/arm-none-eabi/9.2.1/../../../arm-none-eabi/lib/thumb/v7e-m+fp/hard/libc.a(lib_a-abort.o)
 .debug_aranges
                0x0000000000000c20       0x18 /usr/lib/gcc/arm-none-eabi/9.2.1/../../../arm-none-eabi/lib/thumb/v7e-m+fp/hard/libc.a(lib_a-ctype_.o)
 .debug_aranges
                0x0000000000000c38       0x20 /usr/lib/gcc/arm-none-eabi/9.2.1/../../../arm-none-eabi/lib/thumb/v7e-m+fp/hard/libc.a(lib_a-signal.o)
 .debug_aranges
                0x0000000000000c58       0x20 /usr/lib/gcc/arm-none-eabi/9.2.1/../../../arm-none-eabi/lib/thumb/v7e-m+fp/hard/libc.a(lib_a-signalr.o)
 .debug_aranges
                0x0000000000000c78       0x20 /usr/lib/gcc/arm-none-eabi/9.2.1/thumb/v7e-m+fp/hard/libgcc.a(_arm_addsubdf3.o)
 .debug_aranges
                0x0000000000000c98       0x20 /usr/lib/gcc/arm-none-eabi/9.2.1/thumb/v7e-m+fp/hard/libgcc.a(_arm_muldivdf3.o)
 .debug_aranges
                0x0000000000000cb8       0x20 /usr/lib/gcc/arm-none-eabi/9.2.1/thumb/v7e-m+fp/hard/libgcc.a(_arm_cmpdf2.o)
 .debug_aranges
                0x0000000000000cd8       0x20 /usr/lib/gcc/arm-none-eabi/9.2.1/thumb/v7e-m+fp/hard/libgcc.a(_arm_unorddf2.o)
 .debug_aranges
                0x0000000000000cf8       0x20 /usr/lib/gcc/arm-none-eabi/9.2.1/thumb/v7e-m+fp/hard/libgcc.a(_arm_fixdfsi.o)
 .debug_aranges
                0x0000000000000d18       0x20 /usr/lib/gcc/arm-none-eabi/9.2.1/thumb/v7e-m+fp/hard/libgcc.a(_aeabi_uldivmod.o)
 .debug_aranges
                0x0000000000000d38       0x20 /usr/lib/gcc/arm-none-eabi/9.2.1/thumb/v7e-m+fp/hard/libgcc.a(_udivmoddi4.o)
 .debug_aranges
                0x0000000000000d58       0x20 /usr/lib/gcc/arm-none-eabi/9.2.1/thumb/v7e-m+fp/hard/libgcc.a(_dvmd_tls.o)
 .debug_aranges
                0x0000000000000d78       0x20 /usr/lib/gcc/arm-none-eabi/9.2.1/../../../arm-none-eabi/lib/thumb/v7e-m+fp/hard/libnosys.a(close.o)
 .debug_aranges
                0x0000000000000d98       0x20 /usr/lib/gcc/arm-none-eabi/9.2.1/../../../arm-none-eabi/lib/thumb/v7e-m+fp/hard/libnosys.a(fstat.o)
 .debug_aranges
                0x0000000000000db8       0x20 /usr/lib/gcc/arm-none-eabi/9.2.1/../../../arm-none-eabi/lib/thumb/v7e-m+fp/hard/libnosys.a(getpid.o)
 .debug_aranges
                0x0000000000000dd8       0x20 /usr/lib/gcc/arm-none-eabi/9.2.1/../../../arm-none-eabi/lib/thumb/v7e-m+fp/hard/libnosys.a(isatty.o)
 .debug_aranges
                0x0000000000000df8       0x20 /usr/lib/gcc/arm-none-eabi/9.2.1/../../../arm-none-eabi/lib/thumb/v7e-m+fp/hard/libnosys.a(kill.o)
 .debug_aranges
                0x0000000000000e18       0x20 /usr/lib/gcc/arm-none-eabi/9.2.1/../../../arm-none-eabi/lib/thumb/v7e-m+fp/hard/libnosys.a(lseek.o)
 .debug_aranges
                0x0000000000000e38       0x20 /usr/lib/gcc/arm-none-eabi/9.2.1/../../../arm-none-eabi/lib/thumb/v7e-m+fp/hard/libnosys.a(read.o)
 .debug_aranges
                0x0000000000000e58       0x20 /usr/lib/gcc/arm-none-eabi/9.2.1/../../../arm-none-eabi/lib/thumb/v7e-m+fp/hard/libnosys.a(sbrk.o)
 .debug_aranges
                0x0000000000000e78       0x20 /usr/lib/gcc/arm-none-eabi/9.2.1/../../../arm-none-eabi/lib/thumb/v7e-m+fp/hard/libnosys.a(_exit.o)

.debug_ranges   0x0000000000000000     0x10e0
 .debug_ranges  0x0000000000000000       0x10 sdram.o
 .debug_ranges  0x0000000000000010       0x68 lcd.o
 .debug_ranges  0x0000000000000078       0x28 clock.o
 .debug_ranges  0x00000000000000a0       0xb8 labo4.o
 .debug_ranges  0x0000000000000158       0x18 /home/juan/Documents/VIII_Semestre/Labo_Micros/Labos_con_Luisja/Laboratorio_Microcontroladores/Laboratorio_4/src/libopencm3-examples/libopencm3/lib/libopencm3_stm32f4.a(fmc_common_f47.o)
 .debug_ranges  0x0000000000000170       0x40 /home/juan/Documents/VIII_Semestre/Labo_Micros/Labos_con_Luisja/Laboratorio_Microcontroladores/Laboratorio_4/src/libopencm3-examples/libopencm3/lib/libopencm3_stm32f4.a(gpio_common_all.o)
 .debug_ranges  0x00000000000001b0       0x20 /home/juan/Documents/VIII_Semestre/Labo_Micros/Labos_con_Luisja/Laboratorio_Microcontroladores/Laboratorio_4/src/libopencm3-examples/libopencm3/lib/libopencm3_stm32f4.a(gpio_common_f0234.o)
 .debug_ranges  0x00000000000001d0       0x50 /home/juan/Documents/VIII_Semestre/Labo_Micros/Labos_con_Luisja/Laboratorio_Microcontroladores/Laboratorio_4/src/libopencm3-examples/libopencm3/lib/libopencm3_stm32f4.a(rcc_common_all.o)
 .debug_ranges  0x0000000000000220      0x178 /home/juan/Documents/VIII_Semestre/Labo_Micros/Labos_con_Luisja/Laboratorio_Microcontroladores/Laboratorio_4/src/libopencm3-examples/libopencm3/lib/libopencm3_stm32f4.a(rcc.o)
 .debug_ranges  0x0000000000000398      0x168 /home/juan/Documents/VIII_Semestre/Labo_Micros/Labos_con_Luisja/Laboratorio_Microcontroladores/Laboratorio_4/src/libopencm3-examples/libopencm3/lib/libopencm3_stm32f4.a(spi_common_all.o)
 .debug_ranges  0x0000000000000500       0x20 /home/juan/Documents/VIII_Semestre/Labo_Micros/Labos_con_Luisja/Laboratorio_Microcontroladores/Laboratorio_4/src/libopencm3-examples/libopencm3/lib/libopencm3_stm32f4.a(spi_common_v1.o)
 .debug_ranges  0x0000000000000520       0xc8 /home/juan/Documents/VIII_Semestre/Labo_Micros/Labos_con_Luisja/Laboratorio_Microcontroladores/Laboratorio_4/src/libopencm3-examples/libopencm3/lib/libopencm3_stm32f4.a(usart_common_all.o)
 .debug_ranges  0x00000000000005e8       0x20 /home/juan/Documents/VIII_Semestre/Labo_Micros/Labos_con_Luisja/Laboratorio_Microcontroladores/Laboratorio_4/src/libopencm3-examples/libopencm3/lib/libopencm3_stm32f4.a(vector.o)
 .debug_ranges  0x0000000000000608       0x80 /home/juan/Documents/VIII_Semestre/Labo_Micros/Labos_con_Luisja/Laboratorio_Microcontroladores/Laboratorio_4/src/libopencm3-examples/libopencm3/lib/libopencm3_stm32f4.a(systick.o)
 .debug_ranges  0x0000000000000688       0x28 /home/juan/Documents/VIII_Semestre/Labo_Micros/Labos_con_Luisja/Laboratorio_Microcontroladores/Laboratorio_4/src/libopencm3-examples/libopencm3/lib/libopencm3_stm32f4.a(flash_common_all.o)
 .debug_ranges  0x00000000000006b0       0x38 /home/juan/Documents/VIII_Semestre/Labo_Micros/Labos_con_Luisja/Laboratorio_Microcontroladores/Laboratorio_4/src/libopencm3-examples/libopencm3/lib/libopencm3_stm32f4.a(flash_common_idcache.o)
 .debug_ranges  0x00000000000006e8       0x10 /home/juan/Documents/VIII_Semestre/Labo_Micros/Labos_con_Luisja/Laboratorio_Microcontroladores/Laboratorio_4/src/libopencm3-examples/libopencm3/lib/libopencm3_stm32f4.a(pwr.o)
 .debug_ranges  0x00000000000006f8       0x20 /usr/lib/gcc/arm-none-eabi/9.2.1/../../../arm-none-eabi/lib/thumb/v7e-m+fp/hard/libc.a(lib_a-puts.o)
 .debug_ranges  0x0000000000000718      0x190 /usr/lib/gcc/arm-none-eabi/9.2.1/../../../arm-none-eabi/lib/thumb/v7e-m+fp/hard/libc.a(lib_a-vfprintf.o)
 .debug_ranges  0x00000000000008a8       0x28 /usr/lib/gcc/arm-none-eabi/9.2.1/../../../arm-none-eabi/lib/thumb/v7e-m+fp/hard/libc.a(lib_a-wsetup.o)
 .debug_ranges  0x00000000000008d0       0x38 /usr/lib/gcc/arm-none-eabi/9.2.1/../../../arm-none-eabi/lib/thumb/v7e-m+fp/hard/libc.a(lib_a-dtoa.o)
 .debug_ranges  0x0000000000000908       0x70 /usr/lib/gcc/arm-none-eabi/9.2.1/../../../arm-none-eabi/lib/thumb/v7e-m+fp/hard/libc.a(lib_a-fflush.o)
 .debug_ranges  0x0000000000000978      0x118 /usr/lib/gcc/arm-none-eabi/9.2.1/../../../arm-none-eabi/lib/thumb/v7e-m+fp/hard/libc.a(lib_a-findfp.o)
 .debug_ranges  0x0000000000000a90       0x18 /usr/lib/gcc/arm-none-eabi/9.2.1/../../../arm-none-eabi/lib/thumb/v7e-m+fp/hard/libc.a(lib_a-fvwrite.o)
 .debug_ranges  0x0000000000000aa8       0x18 /usr/lib/gcc/arm-none-eabi/9.2.1/../../../arm-none-eabi/lib/thumb/v7e-m+fp/hard/libc.a(lib_a-makebuf.o)
 .debug_ranges  0x0000000000000ac0       0x38 /usr/lib/gcc/arm-none-eabi/9.2.1/../../../arm-none-eabi/lib/thumb/v7e-m+fp/hard/libc.a(lib_a-mallocr.o)
 .debug_ranges  0x0000000000000af8      0x138 /usr/lib/gcc/arm-none-eabi/9.2.1/../../../arm-none-eabi/lib/thumb/v7e-m+fp/hard/libc.a(lib_a-mprec.o)
 .debug_ranges  0x0000000000000c30      0x100 /usr/lib/gcc/arm-none-eabi/9.2.1/../../../arm-none-eabi/lib/thumb/v7e-m+fp/hard/libc.a(lib_a-reallocr.o)
 .debug_ranges  0x0000000000000d30      0x1c0 /usr/lib/gcc/arm-none-eabi/9.2.1/../../../arm-none-eabi/lib/thumb/v7e-m+fp/hard/libc.a(lib_a-vfiprintf.o)
 .debug_ranges  0x0000000000000ef0       0x48 /usr/lib/gcc/arm-none-eabi/9.2.1/../../../arm-none-eabi/lib/thumb/v7e-m+fp/hard/libc.a(lib_a-callocr.o)
 .debug_ranges  0x0000000000000f38       0x30 /usr/lib/gcc/arm-none-eabi/9.2.1/../../../arm-none-eabi/lib/thumb/v7e-m+fp/hard/libc.a(lib_a-fclose.o)
 .debug_ranges  0x0000000000000f68       0x50 /usr/lib/gcc/arm-none-eabi/9.2.1/../../../arm-none-eabi/lib/thumb/v7e-m+fp/hard/libc.a(lib_a-fputwc.o)
 .debug_ranges  0x0000000000000fb8       0x20 /usr/lib/gcc/arm-none-eabi/9.2.1/../../../arm-none-eabi/lib/thumb/v7e-m+fp/hard/libc.a(lib_a-wbuf.o)
 .debug_ranges  0x0000000000000fd8       0x10 /usr/lib/gcc/arm-none-eabi/9.2.1/../../../arm-none-eabi/lib/thumb/v7e-m+fp/hard/libc.a(lib_a-wcrtomb.o)
 .debug_ranges  0x0000000000000fe8       0x30 /usr/lib/gcc/arm-none-eabi/9.2.1/../../../arm-none-eabi/lib/thumb/v7e-m+fp/hard/libc.a(lib_a-signal.o)
 .debug_ranges  0x0000000000001018       0xc8 /usr/lib/gcc/arm-none-eabi/9.2.1/thumb/v7e-m+fp/hard/libgcc.a(_udivmoddi4.o)

.debug_macro    0x0000000000000000     0x55dc
 .debug_macro   0x0000000000000000       0xf7 sdram.o
 .debug_macro   0x00000000000000f7      0xa9c sdram.o
 .debug_macro   0x0000000000000b93      0x34e sdram.o
 .debug_macro   0x0000000000000ee1       0x1c sdram.o
 .debug_macro   0x0000000000000efd       0x22 sdram.o
 .debug_macro   0x0000000000000f1f       0xe8 sdram.o
 .debug_macro   0x0000000000001007       0x76 sdram.o
 .debug_macro   0x000000000000107d      0x280 sdram.o
 .debug_macro   0x00000000000012fd       0x76 sdram.o
 .debug_macro   0x0000000000001373      0x37e sdram.o
 .debug_macro   0x00000000000016f1       0xca sdram.o
 .debug_macro   0x00000000000017bb       0x8e sdram.o
 .debug_macro   0x0000000000001849       0x28 sdram.o
 .debug_macro   0x0000000000001871      0xcea sdram.o
 .debug_macro   0x000000000000255b      0x285 sdram.o
 .debug_macro   0x00000000000027e0      0x2b3 sdram.o
 .debug_macro   0x0000000000002a93       0x10 sdram.o
 .debug_macro   0x0000000000002aa3      0x264 lcd.o
 .debug_macro   0x0000000000002d07       0x22 lcd.o
 .debug_macro   0x0000000000002d29       0x52 lcd.o
 .debug_macro   0x0000000000002d7b       0x18 lcd.o
 .debug_macro   0x0000000000002d93       0x5c lcd.o
 .debug_macro   0x0000000000002def       0x35 lcd.o
 .debug_macro   0x0000000000002e24       0x34 lcd.o
 .debug_macro   0x0000000000002e58       0x16 lcd.o
 .debug_macro   0x0000000000002e6e       0x57 lcd.o
 .debug_macro   0x0000000000002ec5       0x97 lcd.o
 .debug_macro   0x0000000000002f5c      0x35c lcd.o
 .debug_macro   0x00000000000032b8       0xf6 lcd.o
 .debug_macro   0x00000000000033ae       0x10 lcd.o
 .debug_macro   0x00000000000033be       0x16 lcd.o
 .debug_macro   0x00000000000033d4       0x43 lcd.o
 .debug_macro   0x0000000000003417       0x34 lcd.o
 .debug_macro   0x000000000000344b       0x10 lcd.o
 .debug_macro   0x000000000000345b       0x52 lcd.o
 .debug_macro   0x00000000000034ad      0x182 lcd.o
 .debug_macro   0x000000000000362f       0x10 lcd.o
 .debug_macro   0x000000000000363f       0x6a lcd.o
 .debug_macro   0x00000000000036a9       0xb2 lcd.o
 .debug_macro   0x000000000000375b       0x16 lcd.o
 .debug_macro   0x0000000000003771      0x129 lcd.o
 .debug_macro   0x000000000000389a      0x2eb lcd.o
 .debug_macro   0x0000000000003b85       0x16 lcd.o
 .debug_macro   0x0000000000003b9b       0x22 lcd.o
 .debug_macro   0x0000000000003bbd       0x6e lcd.o
 .debug_macro   0x0000000000003c2b      0x22c lcd.o
 .debug_macro   0x0000000000003e57       0x4c lcd.o
 .debug_macro   0x0000000000003ea3      0x246 clock.o
 .debug_macro   0x00000000000040e9       0xa2 clock.o
 .debug_macro   0x000000000000418b       0x94 clock.o
 .debug_macro   0x000000000000421f      0x29e clock.o
 .debug_macro   0x00000000000044bd       0xa0 clock.o
 .debug_macro   0x000000000000455d       0x6f clock.o
 .debug_macro   0x00000000000045cc      0x23d labo4.o
 .debug_macro   0x0000000000004809       0x75 /home/juan/Documents/VIII_Semestre/Labo_Micros/Labos_con_Luisja/Laboratorio_Microcontroladores/Laboratorio_4/src/libopencm3-examples/libopencm3/lib/libopencm3_stm32f4.a(fmc_common_f47.o)
 .debug_macro   0x000000000000487e       0x88 /home/juan/Documents/VIII_Semestre/Labo_Micros/Labos_con_Luisja/Laboratorio_Microcontroladores/Laboratorio_4/src/libopencm3-examples/libopencm3/lib/libopencm3_stm32f4.a(gpio_common_all.o)
 .debug_macro   0x0000000000004906       0x88 /home/juan/Documents/VIII_Semestre/Labo_Micros/Labos_con_Luisja/Laboratorio_Microcontroladores/Laboratorio_4/src/libopencm3-examples/libopencm3/lib/libopencm3_stm32f4.a(gpio_common_f0234.o)
 .debug_macro   0x000000000000498e       0xa7 /home/juan/Documents/VIII_Semestre/Labo_Micros/Labos_con_Luisja/Laboratorio_Microcontroladores/Laboratorio_4/src/libopencm3-examples/libopencm3/lib/libopencm3_stm32f4.a(rcc_common_all.o)
 .debug_macro   0x0000000000004a35       0xdb /home/juan/Documents/VIII_Semestre/Labo_Micros/Labos_con_Luisja/Laboratorio_Microcontroladores/Laboratorio_4/src/libopencm3-examples/libopencm3/lib/libopencm3_stm32f4.a(rcc.o)
 .debug_macro   0x0000000000004b10       0x16 /home/juan/Documents/VIII_Semestre/Labo_Micros/Labos_con_Luisja/Laboratorio_Microcontroladores/Laboratorio_4/src/libopencm3-examples/libopencm3/lib/libopencm3_stm32f4.a(rcc.o)
 .debug_macro   0x0000000000004b26       0x1c /home/juan/Documents/VIII_Semestre/Labo_Micros/Labos_con_Luisja/Laboratorio_Microcontroladores/Laboratorio_4/src/libopencm3-examples/libopencm3/lib/libopencm3_stm32f4.a(rcc.o)
 .debug_macro   0x0000000000004b42      0x143 /home/juan/Documents/VIII_Semestre/Labo_Micros/Labos_con_Luisja/Laboratorio_Microcontroladores/Laboratorio_4/src/libopencm3-examples/libopencm3/lib/libopencm3_stm32f4.a(rcc.o)
 .debug_macro   0x0000000000004c85       0x10 /home/juan/Documents/VIII_Semestre/Labo_Micros/Labos_con_Luisja/Laboratorio_Microcontroladores/Laboratorio_4/src/libopencm3-examples/libopencm3/lib/libopencm3_stm32f4.a(rcc.o)
 .debug_macro   0x0000000000004c95       0xb6 /home/juan/Documents/VIII_Semestre/Labo_Micros/Labos_con_Luisja/Laboratorio_Microcontroladores/Laboratorio_4/src/libopencm3-examples/libopencm3/lib/libopencm3_stm32f4.a(spi_common_all.o)
 .debug_macro   0x0000000000004d4b       0xb6 /home/juan/Documents/VIII_Semestre/Labo_Micros/Labos_con_Luisja/Laboratorio_Microcontroladores/Laboratorio_4/src/libopencm3-examples/libopencm3/lib/libopencm3_stm32f4.a(spi_common_v1.o)
 .debug_macro   0x0000000000004e01       0xc2 /home/juan/Documents/VIII_Semestre/Labo_Micros/Labos_con_Luisja/Laboratorio_Microcontroladores/Laboratorio_4/src/libopencm3-examples/libopencm3/lib/libopencm3_stm32f4.a(usart_common_all.o)
 .debug_macro   0x0000000000004ec3       0x8a /home/juan/Documents/VIII_Semestre/Labo_Micros/Labos_con_Luisja/Laboratorio_Microcontroladores/Laboratorio_4/src/libopencm3-examples/libopencm3/lib/libopencm3_stm32f4.a(vector.o)
 .debug_macro   0x0000000000004f4d      0x452 /home/juan/Documents/VIII_Semestre/Labo_Micros/Labos_con_Luisja/Laboratorio_Microcontroladores/Laboratorio_4/src/libopencm3-examples/libopencm3/lib/libopencm3_stm32f4.a(vector.o)
 .debug_macro   0x000000000000539f       0x49 /home/juan/Documents/VIII_Semestre/Labo_Micros/Labos_con_Luisja/Laboratorio_Microcontroladores/Laboratorio_4/src/libopencm3-examples/libopencm3/lib/libopencm3_stm32f4.a(systick.o)
 .debug_macro   0x00000000000053e8       0x69 /home/juan/Documents/VIII_Semestre/Labo_Micros/Labos_con_Luisja/Laboratorio_Microcontroladores/Laboratorio_4/src/libopencm3-examples/libopencm3/lib/libopencm3_stm32f4.a(systick.o)
 .debug_macro   0x0000000000005451       0x8e /home/juan/Documents/VIII_Semestre/Labo_Micros/Labos_con_Luisja/Laboratorio_Microcontroladores/Laboratorio_4/src/libopencm3-examples/libopencm3/lib/libopencm3_stm32f4.a(flash_common_all.o)
 .debug_macro   0x00000000000054df       0x8e /home/juan/Documents/VIII_Semestre/Labo_Micros/Labos_con_Luisja/Laboratorio_Microcontroladores/Laboratorio_4/src/libopencm3-examples/libopencm3/lib/libopencm3_stm32f4.a(flash_common_idcache.o)
 .debug_macro   0x000000000000556d       0x6f /home/juan/Documents/VIII_Semestre/Labo_Micros/Labos_con_Luisja/Laboratorio_Microcontroladores/Laboratorio_4/src/libopencm3-examples/libopencm3/lib/libopencm3_stm32f4.a(pwr.o)

.debug_line     0x0000000000000000    0x11cd8
 .debug_line    0x0000000000000000      0x4ef sdram.o
 .debug_line    0x00000000000004ef      0x86a lcd.o
 .debug_line    0x0000000000000d59      0x734 clock.o
 .debug_line    0x000000000000148d      0x80a labo4.o
 .debug_line    0x0000000000001c97      0x276 /home/juan/Documents/VIII_Semestre/Labo_Micros/Labos_con_Luisja/Laboratorio_Microcontroladores/Laboratorio_4/src/libopencm3-examples/libopencm3/lib/libopencm3_stm32f4.a(fmc_common_f47.o)
 .debug_line    0x0000000000001f0d      0x2a5 /home/juan/Documents/VIII_Semestre/Labo_Micros/Labos_con_Luisja/Laboratorio_Microcontroladores/Laboratorio_4/src/libopencm3-examples/libopencm3/lib/libopencm3_stm32f4.a(gpio_common_all.o)
 .debug_line    0x00000000000021b2      0x374 /home/juan/Documents/VIII_Semestre/Labo_Micros/Labos_con_Luisja/Laboratorio_Microcontroladores/Laboratorio_4/src/libopencm3-examples/libopencm3/lib/libopencm3_stm32f4.a(gpio_common_f0234.o)
 .debug_line    0x0000000000002526      0x30c /home/juan/Documents/VIII_Semestre/Labo_Micros/Labos_con_Luisja/Laboratorio_Microcontroladores/Laboratorio_4/src/libopencm3-examples/libopencm3/lib/libopencm3_stm32f4.a(rcc_common_all.o)
 .debug_line    0x0000000000002832      0x9d5 /home/juan/Documents/VIII_Semestre/Labo_Micros/Labos_con_Luisja/Laboratorio_Microcontroladores/Laboratorio_4/src/libopencm3-examples/libopencm3/lib/libopencm3_stm32f4.a(rcc.o)
 .debug_line    0x0000000000003207      0x80f /home/juan/Documents/VIII_Semestre/Labo_Micros/Labos_con_Luisja/Laboratorio_Microcontroladores/Laboratorio_4/src/libopencm3-examples/libopencm3/lib/libopencm3_stm32f4.a(spi_common_all.o)
 .debug_line    0x0000000000003a16      0x26b /home/juan/Documents/VIII_Semestre/Labo_Micros/Labos_con_Luisja/Laboratorio_Microcontroladores/Laboratorio_4/src/libopencm3-examples/libopencm3/lib/libopencm3_stm32f4.a(spi_common_v1.o)
 .debug_line    0x0000000000003c81      0x52b /home/juan/Documents/VIII_Semestre/Labo_Micros/Labos_con_Luisja/Laboratorio_Microcontroladores/Laboratorio_4/src/libopencm3-examples/libopencm3/lib/libopencm3_stm32f4.a(usart_common_all.o)
 .debug_line    0x00000000000041ac      0x321 /home/juan/Documents/VIII_Semestre/Labo_Micros/Labos_con_Luisja/Laboratorio_Microcontroladores/Laboratorio_4/src/libopencm3-examples/libopencm3/lib/libopencm3_stm32f4.a(vector.o)
 .debug_line    0x00000000000044cd      0x26e /home/juan/Documents/VIII_Semestre/Labo_Micros/Labos_con_Luisja/Laboratorio_Microcontroladores/Laboratorio_4/src/libopencm3-examples/libopencm3/lib/libopencm3_stm32f4.a(systick.o)
 .debug_line    0x000000000000473b      0x245 /home/juan/Documents/VIII_Semestre/Labo_Micros/Labos_con_Luisja/Laboratorio_Microcontroladores/Laboratorio_4/src/libopencm3-examples/libopencm3/lib/libopencm3_stm32f4.a(flash_common_all.o)
 .debug_line    0x0000000000004980      0x25e /home/juan/Documents/VIII_Semestre/Labo_Micros/Labos_con_Luisja/Laboratorio_Microcontroladores/Laboratorio_4/src/libopencm3-examples/libopencm3/lib/libopencm3_stm32f4.a(flash_common_idcache.o)
 .debug_line    0x0000000000004bde      0x18b /home/juan/Documents/VIII_Semestre/Labo_Micros/Labos_con_Luisja/Laboratorio_Microcontroladores/Laboratorio_4/src/libopencm3-examples/libopencm3/lib/libopencm3_stm32f4.a(pwr.o)
 .debug_line    0x0000000000004d69      0x1db /usr/lib/gcc/arm-none-eabi/9.2.1/../../../arm-none-eabi/lib/thumb/v7e-m+fp/hard/libc.a(lib_a-printf.o)
 .debug_line    0x0000000000004f44      0x224 /usr/lib/gcc/arm-none-eabi/9.2.1/../../../arm-none-eabi/lib/thumb/v7e-m+fp/hard/libc.a(lib_a-puts.o)
 .debug_line    0x0000000000005168       0xaf /usr/lib/gcc/arm-none-eabi/9.2.1/../../../arm-none-eabi/lib/thumb/v7e-m+fp/hard/libc.a(lib_a-strlen.o)
 .debug_line    0x0000000000005217     0x1746 /usr/lib/gcc/arm-none-eabi/9.2.1/../../../arm-none-eabi/lib/thumb/v7e-m+fp/hard/libc.a(lib_a-vfprintf.o)
 .debug_line    0x000000000000695d      0x2cd /usr/lib/gcc/arm-none-eabi/9.2.1/../../../arm-none-eabi/lib/thumb/v7e-m+fp/hard/libc.a(lib_a-wsetup.o)
 .debug_line    0x0000000000006c2a     0x13b3 /usr/lib/gcc/arm-none-eabi/9.2.1/../../../arm-none-eabi/lib/thumb/v7e-m+fp/hard/libc.a(lib_a-dtoa.o)
 .debug_line    0x0000000000007fdd      0x430 /usr/lib/gcc/arm-none-eabi/9.2.1/../../../arm-none-eabi/lib/thumb/v7e-m+fp/hard/libc.a(lib_a-fflush.o)
 .debug_line    0x000000000000840d      0x526 /usr/lib/gcc/arm-none-eabi/9.2.1/../../../arm-none-eabi/lib/thumb/v7e-m+fp/hard/libc.a(lib_a-findfp.o)
 .debug_line    0x0000000000008933      0x51c /usr/lib/gcc/arm-none-eabi/9.2.1/../../../arm-none-eabi/lib/thumb/v7e-m+fp/hard/libc.a(lib_a-freer.o)
 .debug_line    0x0000000000008e4f      0x5e8 /usr/lib/gcc/arm-none-eabi/9.2.1/../../../arm-none-eabi/lib/thumb/v7e-m+fp/hard/libc.a(lib_a-fvwrite.o)
 .debug_line    0x0000000000009437      0x289 /usr/lib/gcc/arm-none-eabi/9.2.1/../../../arm-none-eabi/lib/thumb/v7e-m+fp/hard/libc.a(lib_a-fwalk.o)
 .debug_line    0x00000000000096c0       0xe3 /usr/lib/gcc/arm-none-eabi/9.2.1/../../../arm-none-eabi/lib/thumb/v7e-m+fp/hard/libc.a(lib_a-impure.o)
 .debug_line    0x00000000000097a3      0x1ca /usr/lib/gcc/arm-none-eabi/9.2.1/../../../arm-none-eabi/lib/thumb/v7e-m+fp/hard/libc.a(lib_a-localeconv.o)
 .debug_line    0x000000000000996d      0x35d /usr/lib/gcc/arm-none-eabi/9.2.1/../../../arm-none-eabi/lib/thumb/v7e-m+fp/hard/libc.a(lib_a-makebuf.o)
 .debug_line    0x0000000000009cca      0x89e /usr/lib/gcc/arm-none-eabi/9.2.1/../../../arm-none-eabi/lib/thumb/v7e-m+fp/hard/libc.a(lib_a-mallocr.o)
 .debug_line    0x000000000000a568       0xa4 /usr/lib/gcc/arm-none-eabi/9.2.1/../../../arm-none-eabi/lib/thumb/v7e-m+fp/hard/libc.a(lib_a-memchr.o)
 .debug_line    0x000000000000a60c       0xbe /usr/lib/gcc/arm-none-eabi/9.2.1/../../../arm-none-eabi/lib/thumb/v7e-m+fp/hard/libc.a(lib_a-memcpy.o)
 .debug_line    0x000000000000a6ca      0x287 /usr/lib/gcc/arm-none-eabi/9.2.1/../../../arm-none-eabi/lib/thumb/v7e-m+fp/hard/libc.a(lib_a-memmove.o)
 .debug_line    0x000000000000a951      0x26b /usr/lib/gcc/arm-none-eabi/9.2.1/../../../arm-none-eabi/lib/thumb/v7e-m+fp/hard/libc.a(lib_a-memset.o)
 .debug_line    0x000000000000abbc      0x13d /usr/lib/gcc/arm-none-eabi/9.2.1/../../../arm-none-eabi/lib/thumb/v7e-m+fp/hard/libc.a(lib_a-mlock.o)
 .debug_line    0x000000000000acf9     0x146f /usr/lib/gcc/arm-none-eabi/9.2.1/../../../arm-none-eabi/lib/thumb/v7e-m+fp/hard/libc.a(lib_a-mprec.o)
 .debug_line    0x000000000000c168      0x653 /usr/lib/gcc/arm-none-eabi/9.2.1/../../../arm-none-eabi/lib/thumb/v7e-m+fp/hard/libc.a(lib_a-reallocr.o)
 .debug_line    0x000000000000c7bb      0x182 /usr/lib/gcc/arm-none-eabi/9.2.1/../../../arm-none-eabi/lib/thumb/v7e-m+fp/hard/libc.a(lib_a-sbrkr.o)
 .debug_line    0x000000000000c93d      0x25f /usr/lib/gcc/arm-none-eabi/9.2.1/../../../arm-none-eabi/lib/thumb/v7e-m+fp/hard/libc.a(lib_a-stdio.o)
 .debug_line    0x000000000000cb9c     0x118d /usr/lib/gcc/arm-none-eabi/9.2.1/../../../arm-none-eabi/lib/thumb/v7e-m+fp/hard/libc.a(lib_a-vfiprintf.o)
 .debug_line    0x000000000000dd29      0x188 /usr/lib/gcc/arm-none-eabi/9.2.1/../../../arm-none-eabi/lib/thumb/v7e-m+fp/hard/libc.a(lib_a-writer.o)
 .debug_line    0x000000000000deb1      0x18d /usr/lib/gcc/arm-none-eabi/9.2.1/../../../arm-none-eabi/lib/thumb/v7e-m+fp/hard/libc.a(lib_a-assert.o)
 .debug_line    0x000000000000e03e      0x1bb /usr/lib/gcc/arm-none-eabi/9.2.1/../../../arm-none-eabi/lib/thumb/v7e-m+fp/hard/libc.a(lib_a-callocr.o)
 .debug_line    0x000000000000e1f9      0x182 /usr/lib/gcc/arm-none-eabi/9.2.1/../../../arm-none-eabi/lib/thumb/v7e-m+fp/hard/libc.a(lib_a-closer.o)
 .debug_line    0x000000000000e37b      0x23d /usr/lib/gcc/arm-none-eabi/9.2.1/../../../arm-none-eabi/lib/thumb/v7e-m+fp/hard/libc.a(lib_a-fclose.o)
 .debug_line    0x000000000000e5b8      0x199 /usr/lib/gcc/arm-none-eabi/9.2.1/../../../arm-none-eabi/lib/thumb/v7e-m+fp/hard/libc.a(lib_a-fiprintf.o)
 .debug_line    0x000000000000e751      0x2f9 /usr/lib/gcc/arm-none-eabi/9.2.1/../../../arm-none-eabi/lib/thumb/v7e-m+fp/hard/libc.a(lib_a-fputwc.o)
 .debug_line    0x000000000000ea4a      0x213 /usr/lib/gcc/arm-none-eabi/9.2.1/../../../arm-none-eabi/lib/thumb/v7e-m+fp/hard/libc.a(lib_a-fstatr.o)
 .debug_line    0x000000000000ec5d      0x183 /usr/lib/gcc/arm-none-eabi/9.2.1/../../../arm-none-eabi/lib/thumb/v7e-m+fp/hard/libc.a(lib_a-isattyr.o)
 .debug_line    0x000000000000ede0      0x252 /usr/lib/gcc/arm-none-eabi/9.2.1/../../../arm-none-eabi/lib/thumb/v7e-m+fp/hard/libc.a(lib_a-locale.o)
 .debug_line    0x000000000000f032      0x188 /usr/lib/gcc/arm-none-eabi/9.2.1/../../../arm-none-eabi/lib/thumb/v7e-m+fp/hard/libc.a(lib_a-lseekr.o)
 .debug_line    0x000000000000f1ba      0x228 /usr/lib/gcc/arm-none-eabi/9.2.1/../../../arm-none-eabi/lib/thumb/v7e-m+fp/hard/libc.a(lib_a-mbtowc_r.o)
 .debug_line    0x000000000000f3e2      0x187 /usr/lib/gcc/arm-none-eabi/9.2.1/../../../arm-none-eabi/lib/thumb/v7e-m+fp/hard/libc.a(lib_a-readr.o)
 .debug_line    0x000000000000f569      0x21b /usr/lib/gcc/arm-none-eabi/9.2.1/../../../arm-none-eabi/lib/thumb/v7e-m+fp/hard/libc.a(lib_a-reent.o)
 .debug_line    0x000000000000f784      0x137 /usr/lib/gcc/arm-none-eabi/9.2.1/../../../arm-none-eabi/lib/thumb/v7e-m+fp/hard/libc.a(lib_a-strcmp.o)
 .debug_line    0x000000000000f8bb      0x29b /usr/lib/gcc/arm-none-eabi/9.2.1/../../../arm-none-eabi/lib/thumb/v7e-m+fp/hard/libc.a(lib_a-wbuf.o)
 .debug_line    0x000000000000fb56      0x2b5 /usr/lib/gcc/arm-none-eabi/9.2.1/../../../arm-none-eabi/lib/thumb/v7e-m+fp/hard/libc.a(lib_a-wcrtomb.o)
 .debug_line    0x000000000000fe0b      0x212 /usr/lib/gcc/arm-none-eabi/9.2.1/../../../arm-none-eabi/lib/thumb/v7e-m+fp/hard/libc.a(lib_a-wctomb_r.o)
 .debug_line    0x000000000001001d      0x15f /usr/lib/gcc/arm-none-eabi/9.2.1/../../../arm-none-eabi/lib/thumb/v7e-m+fp/hard/libc.a(lib_a-abort.o)
 .debug_line    0x000000000001017c      0x154 /usr/lib/gcc/arm-none-eabi/9.2.1/../../../arm-none-eabi/lib/thumb/v7e-m+fp/hard/libc.a(lib_a-ctype_.o)
 .debug_line    0x00000000000102d0      0x3cc /usr/lib/gcc/arm-none-eabi/9.2.1/../../../arm-none-eabi/lib/thumb/v7e-m+fp/hard/libc.a(lib_a-signal.o)
 .debug_line    0x000000000001069c      0x1a4 /usr/lib/gcc/arm-none-eabi/9.2.1/../../../arm-none-eabi/lib/thumb/v7e-m+fp/hard/libc.a(lib_a-signalr.o)
 .debug_line    0x0000000000010840      0x186 /usr/lib/gcc/arm-none-eabi/9.2.1/thumb/v7e-m+fp/hard/libgcc.a(_arm_addsubdf3.o)
 .debug_line    0x00000000000109c6      0x19b /usr/lib/gcc/arm-none-eabi/9.2.1/thumb/v7e-m+fp/hard/libgcc.a(_arm_muldivdf3.o)
 .debug_line    0x0000000000010b61       0xbd /usr/lib/gcc/arm-none-eabi/9.2.1/thumb/v7e-m+fp/hard/libgcc.a(_arm_cmpdf2.o)
 .debug_line    0x0000000000010c1e       0x6e /usr/lib/gcc/arm-none-eabi/9.2.1/thumb/v7e-m+fp/hard/libgcc.a(_arm_unorddf2.o)
 .debug_line    0x0000000000010c8c       0x79 /usr/lib/gcc/arm-none-eabi/9.2.1/thumb/v7e-m+fp/hard/libgcc.a(_arm_fixdfsi.o)
 .debug_line    0x0000000000010d05       0x60 /usr/lib/gcc/arm-none-eabi/9.2.1/thumb/v7e-m+fp/hard/libgcc.a(_aeabi_uldivmod.o)
 .debug_line    0x0000000000010d65      0x61a /usr/lib/gcc/arm-none-eabi/9.2.1/thumb/v7e-m+fp/hard/libgcc.a(_udivmoddi4.o)
 .debug_line    0x000000000001137f       0x60 /usr/lib/gcc/arm-none-eabi/9.2.1/thumb/v7e-m+fp/hard/libgcc.a(_dvmd_tls.o)
 .debug_line    0x00000000000113df      0x10b /usr/lib/gcc/arm-none-eabi/9.2.1/../../../arm-none-eabi/lib/thumb/v7e-m+fp/hard/libnosys.a(close.o)
 .debug_line    0x00000000000114ea      0x1cf /usr/lib/gcc/arm-none-eabi/9.2.1/../../../arm-none-eabi/lib/thumb/v7e-m+fp/hard/libnosys.a(fstat.o)
 .debug_line    0x00000000000116b9      0x10b /usr/lib/gcc/arm-none-eabi/9.2.1/../../../arm-none-eabi/lib/thumb/v7e-m+fp/hard/libnosys.a(getpid.o)
 .debug_line    0x00000000000117c4      0x10c /usr/lib/gcc/arm-none-eabi/9.2.1/../../../arm-none-eabi/lib/thumb/v7e-m+fp/hard/libnosys.a(isatty.o)
 .debug_line    0x00000000000118d0      0x10a /usr/lib/gcc/arm-none-eabi/9.2.1/../../../arm-none-eabi/lib/thumb/v7e-m+fp/hard/libnosys.a(kill.o)
 .debug_line    0x00000000000119da      0x10c /usr/lib/gcc/arm-none-eabi/9.2.1/../../../arm-none-eabi/lib/thumb/v7e-m+fp/hard/libnosys.a(lseek.o)
 .debug_line    0x0000000000011ae6      0x10b /usr/lib/gcc/arm-none-eabi/9.2.1/../../../arm-none-eabi/lib/thumb/v7e-m+fp/hard/libnosys.a(read.o)
 .debug_line    0x0000000000011bf1       0x79 /usr/lib/gcc/arm-none-eabi/9.2.1/../../../arm-none-eabi/lib/thumb/v7e-m+fp/hard/libnosys.a(sbrk.o)
 .debug_line    0x0000000000011c6a       0x6e /usr/lib/gcc/arm-none-eabi/9.2.1/../../../arm-none-eabi/lib/thumb/v7e-m+fp/hard/libnosys.a(_exit.o)

.debug_str      0x0000000000000000    0x199a2
 .debug_str     0x0000000000000000     0xbfda sdram.o
                                       0xc1d1 (size before relaxing)
 .debug_str     0x000000000000bfda     0x521c lcd.o
                                       0xfae6 (size before relaxing)
 .debug_str     0x00000000000111f6     0x1948 clock.o
                                       0xfd58 (size before relaxing)
 .debug_str     0x0000000000012b3e       0xf4 labo4.o
                                       0xfb0f (size before relaxing)
 .debug_str     0x0000000000012c32      0x1aa /home/juan/Documents/VIII_Semestre/Labo_Micros/Labos_con_Luisja/Laboratorio_Microcontroladores/Laboratorio_4/src/libopencm3-examples/libopencm3/lib/libopencm3_stm32f4.a(fmc_common_f47.o)
                                       0x691e (size before relaxing)
 .debug_str     0x0000000000012ddc       0x6f /home/juan/Documents/VIII_Semestre/Labo_Micros/Labos_con_Luisja/Laboratorio_Microcontroladores/Laboratorio_4/src/libopencm3-examples/libopencm3/lib/libopencm3_stm32f4.a(gpio_common_all.o)
                                       0x6307 (size before relaxing)
 .debug_str     0x0000000000012e4b       0x61 /home/juan/Documents/VIII_Semestre/Labo_Micros/Labos_con_Luisja/Laboratorio_Microcontroladores/Laboratorio_4/src/libopencm3-examples/libopencm3/lib/libopencm3_stm32f4.a(gpio_common_f0234.o)
                                       0x631f (size before relaxing)
 .debug_str     0x0000000000012eac      0x475 /home/juan/Documents/VIII_Semestre/Labo_Micros/Labos_con_Luisja/Laboratorio_Microcontroladores/Laboratorio_4/src/libopencm3-examples/libopencm3/lib/libopencm3_stm32f4.a(rcc_common_all.o)
                                       0x9788 (size before relaxing)
 .debug_str     0x0000000000013321      0xacd /home/juan/Documents/VIII_Semestre/Labo_Micros/Labos_con_Luisja/Laboratorio_Microcontroladores/Laboratorio_4/src/libopencm3-examples/libopencm3/lib/libopencm3_stm32f4.a(rcc.o)
                                       0x9e9f (size before relaxing)
 .debug_str     0x0000000000013dee      0x3fa /home/juan/Documents/VIII_Semestre/Labo_Micros/Labos_con_Luisja/Laboratorio_Microcontroladores/Laboratorio_4/src/libopencm3-examples/libopencm3/lib/libopencm3_stm32f4.a(spi_common_all.o)
                                       0xa208 (size before relaxing)
 .debug_str     0x00000000000141e8       0x50 /home/juan/Documents/VIII_Semestre/Labo_Micros/Labos_con_Luisja/Laboratorio_Microcontroladores/Laboratorio_4/src/libopencm3-examples/libopencm3/lib/libopencm3_stm32f4.a(spi_common_v1.o)
                                       0x9b89 (size before relaxing)
 .debug_str     0x0000000000014238      0x21d /home/juan/Documents/VIII_Semestre/Labo_Micros/Labos_con_Luisja/Laboratorio_Microcontroladores/Laboratorio_4/src/libopencm3-examples/libopencm3/lib/libopencm3_stm32f4.a(usart_common_all.o)
                                       0xa20e (size before relaxing)
 .debug_str     0x0000000000014455     0x2314 /home/juan/Documents/VIII_Semestre/Labo_Micros/Labos_con_Luisja/Laboratorio_Microcontroladores/Laboratorio_4/src/libopencm3-examples/libopencm3/lib/libopencm3_stm32f4.a(vector.o)
                                       0x6bc3 (size before relaxing)
 .debug_str     0x0000000000016769       0xb7 /home/juan/Documents/VIII_Semestre/Labo_Micros/Labos_con_Luisja/Laboratorio_Microcontroladores/Laboratorio_4/src/libopencm3-examples/libopencm3/lib/libopencm3_stm32f4.a(systick.o)
                                       0x4220 (size before relaxing)
 .debug_str     0x0000000000016820       0x64 /home/juan/Documents/VIII_Semestre/Labo_Micros/Labos_con_Luisja/Laboratorio_Microcontroladores/Laboratorio_4/src/libopencm3-examples/libopencm3/lib/libopencm3_stm32f4.a(flash_common_all.o)
                                       0x5669 (size before relaxing)
 .debug_str     0x0000000000016884       0x47 /home/juan/Documents/VIII_Semestre/Labo_Micros/Labos_con_Luisja/Laboratorio_Microcontroladores/Laboratorio_4/src/libopencm3-examples/libopencm3/lib/libopencm3_stm32f4.a(flash_common_idcache.o)
                                       0x568b (size before relaxing)
 .debug_str     0x00000000000168cb        0x6 /home/juan/Documents/VIII_Semestre/Labo_Micros/Labos_con_Luisja/Laboratorio_Microcontroladores/Laboratorio_4/src/libopencm3-examples/libopencm3/lib/libopencm3_stm32f4.a(pwr.o)
                                       0x5267 (size before relaxing)
 .debug_str     0x00000000000168d1      0x265 /usr/lib/gcc/arm-none-eabi/9.2.1/../../../arm-none-eabi/lib/thumb/v7e-m+fp/hard/libc.a(lib_a-printf.o)
                                        0x712 (size before relaxing)
 .debug_str     0x0000000000016b36       0xa1 /usr/lib/gcc/arm-none-eabi/9.2.1/../../../arm-none-eabi/lib/thumb/v7e-m+fp/hard/libc.a(lib_a-puts.o)
                                        0x755 (size before relaxing)
 .debug_str     0x0000000000016bd7       0xb0 /usr/lib/gcc/arm-none-eabi/9.2.1/../../../arm-none-eabi/lib/thumb/v7e-m+fp/hard/libc.a(lib_a-strlen.o)
 .debug_str     0x0000000000016c87      0x462 /usr/lib/gcc/arm-none-eabi/9.2.1/../../../arm-none-eabi/lib/thumb/v7e-m+fp/hard/libc.a(lib_a-vfprintf.o)
                                        0xcb2 (size before relaxing)
 .debug_str     0x00000000000170e9       0x48 /usr/lib/gcc/arm-none-eabi/9.2.1/../../../arm-none-eabi/lib/thumb/v7e-m+fp/hard/libc.a(lib_a-wsetup.o)
                                        0x724 (size before relaxing)
 .debug_str     0x0000000000017131      0x1e2 /usr/lib/gcc/arm-none-eabi/9.2.1/../../../arm-none-eabi/lib/thumb/v7e-m+fp/hard/libc.a(lib_a-dtoa.o)
                                        0xa9d (size before relaxing)
 .debug_str     0x0000000000017313       0x63 /usr/lib/gcc/arm-none-eabi/9.2.1/../../../arm-none-eabi/lib/thumb/v7e-m+fp/hard/libc.a(lib_a-fflush.o)
                                        0x752 (size before relaxing)
 .debug_str     0x0000000000017376      0x17c /usr/lib/gcc/arm-none-eabi/9.2.1/../../../arm-none-eabi/lib/thumb/v7e-m+fp/hard/libc.a(lib_a-findfp.o)
                                        0x862 (size before relaxing)
 .debug_str     0x00000000000174f2      0x1a1 /usr/lib/gcc/arm-none-eabi/9.2.1/../../../arm-none-eabi/lib/thumb/v7e-m+fp/hard/libc.a(lib_a-freer.o)
                                        0x781 (size before relaxing)
 .debug_str     0x0000000000017693       0x65 /usr/lib/gcc/arm-none-eabi/9.2.1/../../../arm-none-eabi/lib/thumb/v7e-m+fp/hard/libc.a(lib_a-fvwrite.o)
                                        0x7a3 (size before relaxing)
 .debug_str     0x00000000000176f8       0x41 /usr/lib/gcc/arm-none-eabi/9.2.1/../../../arm-none-eabi/lib/thumb/v7e-m+fp/hard/libc.a(lib_a-fwalk.o)
                                        0x716 (size before relaxing)
 .debug_str     0x0000000000017739       0x9b /usr/lib/gcc/arm-none-eabi/9.2.1/../../../arm-none-eabi/lib/thumb/v7e-m+fp/hard/libc.a(lib_a-impure.o)
                                        0x5a0 (size before relaxing)
 .debug_str     0x00000000000177d4       0xf7 /usr/lib/gcc/arm-none-eabi/9.2.1/../../../arm-none-eabi/lib/thumb/v7e-m+fp/hard/libc.a(lib_a-localeconv.o)
                                        0x932 (size before relaxing)
 .debug_str     0x00000000000178cb      0x151 /usr/lib/gcc/arm-none-eabi/9.2.1/../../../arm-none-eabi/lib/thumb/v7e-m+fp/hard/libc.a(lib_a-makebuf.o)
                                        0x897 (size before relaxing)
 .debug_str     0x0000000000017a1c       0xb0 /usr/lib/gcc/arm-none-eabi/9.2.1/../../../arm-none-eabi/lib/thumb/v7e-m+fp/hard/libc.a(lib_a-mallocr.o)
                                        0x808 (size before relaxing)
 .debug_str     0x0000000000017acc       0x3c /usr/lib/gcc/arm-none-eabi/9.2.1/../../../arm-none-eabi/lib/thumb/v7e-m+fp/hard/libc.a(lib_a-memchr.o)
                                         0xaa (size before relaxing)
 .debug_str     0x0000000000017b08       0x43 /usr/lib/gcc/arm-none-eabi/9.2.1/../../../arm-none-eabi/lib/thumb/v7e-m+fp/hard/libc.a(lib_a-memcpy.o)
                                         0xb1 (size before relaxing)
 .debug_str     0x0000000000017b4b       0xbc /usr/lib/gcc/arm-none-eabi/9.2.1/../../../arm-none-eabi/lib/thumb/v7e-m+fp/hard/libc.a(lib_a-memmove.o)
                                        0x8ec (size before relaxing)
 .debug_str     0x0000000000017c07       0x41 /usr/lib/gcc/arm-none-eabi/9.2.1/../../../arm-none-eabi/lib/thumb/v7e-m+fp/hard/libc.a(lib_a-memset.o)
                                        0x8cd (size before relaxing)
 .debug_str     0x0000000000017c48       0x4c /usr/lib/gcc/arm-none-eabi/9.2.1/../../../arm-none-eabi/lib/thumb/v7e-m+fp/hard/libc.a(lib_a-mlock.o)
                                        0x5cc (size before relaxing)
 .debug_str     0x0000000000017c94       0x8d /usr/lib/gcc/arm-none-eabi/9.2.1/../../../arm-none-eabi/lib/thumb/v7e-m+fp/hard/libc.a(lib_a-mprec.o)
                                        0xa46 (size before relaxing)
 .debug_str     0x0000000000017d21       0x4e /usr/lib/gcc/arm-none-eabi/9.2.1/../../../arm-none-eabi/lib/thumb/v7e-m+fp/hard/libc.a(lib_a-reallocr.o)
                                        0x7bf (size before relaxing)
 .debug_str     0x0000000000017d6f       0x3d /usr/lib/gcc/arm-none-eabi/9.2.1/../../../arm-none-eabi/lib/thumb/v7e-m+fp/hard/libc.a(lib_a-sbrkr.o)
                                        0x5e3 (size before relaxing)
 .debug_str     0x0000000000017dac       0x92 /usr/lib/gcc/arm-none-eabi/9.2.1/../../../arm-none-eabi/lib/thumb/v7e-m+fp/hard/libc.a(lib_a-stdio.o)
                                        0x76a (size before relaxing)
 .debug_str     0x0000000000017e3e       0x21 /usr/lib/gcc/arm-none-eabi/9.2.1/../../../arm-none-eabi/lib/thumb/v7e-m+fp/hard/libc.a(lib_a-vfiprintf.o)
                                        0xc1a (size before relaxing)
 .debug_str     0x0000000000017e5f       0x33 /usr/lib/gcc/arm-none-eabi/9.2.1/../../../arm-none-eabi/lib/thumb/v7e-m+fp/hard/libc.a(lib_a-writer.o)
                                        0x5e0 (size before relaxing)
 .debug_str     0x0000000000017e92       0x53 /usr/lib/gcc/arm-none-eabi/9.2.1/../../../arm-none-eabi/lib/thumb/v7e-m+fp/hard/libc.a(lib_a-assert.o)
                                        0x5e0 (size before relaxing)
 .debug_str     0x0000000000017ee5        0xf /usr/lib/gcc/arm-none-eabi/9.2.1/../../../arm-none-eabi/lib/thumb/v7e-m+fp/hard/libc.a(lib_a-callocr.o)
                                        0x72c (size before relaxing)
 .debug_str     0x0000000000017ef4       0x33 /usr/lib/gcc/arm-none-eabi/9.2.1/../../../arm-none-eabi/lib/thumb/v7e-m+fp/hard/libc.a(lib_a-closer.o)
                                        0x5d0 (size before relaxing)
 .debug_str     0x0000000000017f27       0x44 /usr/lib/gcc/arm-none-eabi/9.2.1/../../../arm-none-eabi/lib/thumb/v7e-m+fp/hard/libc.a(lib_a-fclose.o)
                                        0x73b (size before relaxing)
 .debug_str     0x0000000000017f6b       0x41 /usr/lib/gcc/arm-none-eabi/9.2.1/../../../arm-none-eabi/lib/thumb/v7e-m+fp/hard/libc.a(lib_a-fiprintf.o)
                                        0x5e3 (size before relaxing)
 .debug_str     0x0000000000017fac       0x6f /usr/lib/gcc/arm-none-eabi/9.2.1/../../../arm-none-eabi/lib/thumb/v7e-m+fp/hard/libc.a(lib_a-fputwc.o)
                                        0x76a (size before relaxing)
 .debug_str     0x000000000001801b       0x40 /usr/lib/gcc/arm-none-eabi/9.2.1/../../../arm-none-eabi/lib/thumb/v7e-m+fp/hard/libc.a(lib_a-fstatr.o)
                                        0x73e (size before relaxing)
 .debug_str     0x000000000001805b       0x3c /usr/lib/gcc/arm-none-eabi/9.2.1/../../../arm-none-eabi/lib/thumb/v7e-m+fp/hard/libc.a(lib_a-isattyr.o)
                                        0x5da (size before relaxing)
 .debug_str     0x0000000000018097       0x67 /usr/lib/gcc/arm-none-eabi/9.2.1/../../../arm-none-eabi/lib/thumb/v7e-m+fp/hard/libc.a(lib_a-locale.o)
                                        0x972 (size before relaxing)
 .debug_str     0x00000000000180fe       0x3a /usr/lib/gcc/arm-none-eabi/9.2.1/../../../arm-none-eabi/lib/thumb/v7e-m+fp/hard/libc.a(lib_a-lseekr.o)
                                        0x5de (size before relaxing)
 .debug_str     0x0000000000018138       0x55 /usr/lib/gcc/arm-none-eabi/9.2.1/../../../arm-none-eabi/lib/thumb/v7e-m+fp/hard/libc.a(lib_a-mbtowc_r.o)
                                        0x943 (size before relaxing)
 .debug_str     0x000000000001818d       0x32 /usr/lib/gcc/arm-none-eabi/9.2.1/../../../arm-none-eabi/lib/thumb/v7e-m+fp/hard/libc.a(lib_a-readr.o)
                                        0x5de (size before relaxing)
 .debug_str     0x00000000000181bf       0x5e /usr/lib/gcc/arm-none-eabi/9.2.1/../../../arm-none-eabi/lib/thumb/v7e-m+fp/hard/libc.a(lib_a-reent.o)
                                        0x5dc (size before relaxing)
 .debug_str     0x000000000001821d       0x42 /usr/lib/gcc/arm-none-eabi/9.2.1/../../../arm-none-eabi/lib/thumb/v7e-m+fp/hard/libc.a(lib_a-strcmp.o)
                                         0xb0 (size before relaxing)
 .debug_str     0x000000000001825f       0x39 /usr/lib/gcc/arm-none-eabi/9.2.1/../../../arm-none-eabi/lib/thumb/v7e-m+fp/hard/libc.a(lib_a-wbuf.o)
                                        0x729 (size before relaxing)
 .debug_str     0x0000000000018298       0x44 /usr/lib/gcc/arm-none-eabi/9.2.1/../../../arm-none-eabi/lib/thumb/v7e-m+fp/hard/libc.a(lib_a-wcrtomb.o)
                                        0x93d (size before relaxing)
 .debug_str     0x00000000000182dc       0x56 /usr/lib/gcc/arm-none-eabi/9.2.1/../../../arm-none-eabi/lib/thumb/v7e-m+fp/hard/libc.a(lib_a-wctomb_r.o)
                                        0x94a (size before relaxing)
 .debug_str     0x0000000000018332       0x3f /usr/lib/gcc/arm-none-eabi/9.2.1/../../../arm-none-eabi/lib/thumb/v7e-m+fp/hard/libc.a(lib_a-abort.o)
                                        0x5de (size before relaxing)
 .debug_str     0x0000000000018371       0x8f /usr/lib/gcc/arm-none-eabi/9.2.1/../../../arm-none-eabi/lib/thumb/v7e-m+fp/hard/libc.a(lib_a-ctype_.o)
                                        0x8b8 (size before relaxing)
 .debug_str     0x0000000000018400       0xf7 /usr/lib/gcc/arm-none-eabi/9.2.1/../../../arm-none-eabi/lib/thumb/v7e-m+fp/hard/libc.a(lib_a-signal.o)
                                        0x643 (size before relaxing)
 .debug_str     0x00000000000184f7       0x42 /usr/lib/gcc/arm-none-eabi/9.2.1/../../../arm-none-eabi/lib/thumb/v7e-m+fp/hard/libc.a(lib_a-signalr.o)
                                        0x5e8 (size before relaxing)
 .debug_str     0x0000000000018539       0x9c /usr/lib/gcc/arm-none-eabi/9.2.1/thumb/v7e-m+fp/hard/libgcc.a(_arm_addsubdf3.o)
                                         0xa8 (size before relaxing)
 .debug_str     0x00000000000185d5       0xa8 /usr/lib/gcc/arm-none-eabi/9.2.1/thumb/v7e-m+fp/hard/libgcc.a(_arm_muldivdf3.o)
 .debug_str     0x00000000000185d5       0xa8 /usr/lib/gcc/arm-none-eabi/9.2.1/thumb/v7e-m+fp/hard/libgcc.a(_arm_cmpdf2.o)
 .debug_str     0x00000000000185d5       0xa8 /usr/lib/gcc/arm-none-eabi/9.2.1/thumb/v7e-m+fp/hard/libgcc.a(_arm_unorddf2.o)
 .debug_str     0x00000000000185d5       0xa8 /usr/lib/gcc/arm-none-eabi/9.2.1/thumb/v7e-m+fp/hard/libgcc.a(_arm_fixdfsi.o)
 .debug_str     0x00000000000185d5       0x2c /usr/lib/gcc/arm-none-eabi/9.2.1/thumb/v7e-m+fp/hard/libgcc.a(_aeabi_uldivmod.o)
                                         0xa3 (size before relaxing)
 .debug_str     0x0000000000018601     0x10dc /usr/lib/gcc/arm-none-eabi/9.2.1/thumb/v7e-m+fp/hard/libgcc.a(_udivmoddi4.o)
                                       0x11e6 (size before relaxing)
 .debug_str     0x00000000000196dd       0x30 /usr/lib/gcc/arm-none-eabi/9.2.1/thumb/v7e-m+fp/hard/libgcc.a(_dvmd_tls.o)
                                         0xa7 (size before relaxing)
 .debug_str     0x000000000001970d      0x110 /usr/lib/gcc/arm-none-eabi/9.2.1/../../../arm-none-eabi/lib/thumb/v7e-m+fp/hard/libnosys.a(close.o)
                                        0x5a1 (size before relaxing)
 .debug_str     0x000000000001981d       0x2f /usr/lib/gcc/arm-none-eabi/9.2.1/../../../arm-none-eabi/lib/thumb/v7e-m+fp/hard/libnosys.a(fstat.o)
                                        0x709 (size before relaxing)
 .debug_str     0x000000000001984c       0x30 /usr/lib/gcc/arm-none-eabi/9.2.1/../../../arm-none-eabi/lib/thumb/v7e-m+fp/hard/libnosys.a(getpid.o)
                                        0x5a3 (size before relaxing)
 .debug_str     0x000000000001987c       0x30 /usr/lib/gcc/arm-none-eabi/9.2.1/../../../arm-none-eabi/lib/thumb/v7e-m+fp/hard/libnosys.a(isatty.o)
                                        0x5a8 (size before relaxing)
 .debug_str     0x00000000000198ac       0x2e /usr/lib/gcc/arm-none-eabi/9.2.1/../../../arm-none-eabi/lib/thumb/v7e-m+fp/hard/libnosys.a(kill.o)
                                        0x59f (size before relaxing)
 .debug_str     0x00000000000198da       0x2f /usr/lib/gcc/arm-none-eabi/9.2.1/../../../arm-none-eabi/lib/thumb/v7e-m+fp/hard/libnosys.a(lseek.o)
                                        0x5a6 (size before relaxing)
 .debug_str     0x0000000000019909       0x2e /usr/lib/gcc/arm-none-eabi/9.2.1/../../../arm-none-eabi/lib/thumb/v7e-m+fp/hard/libnosys.a(read.o)
                                        0x59e (size before relaxing)
 .debug_str     0x0000000000019937       0x3c /usr/lib/gcc/arm-none-eabi/9.2.1/../../../arm-none-eabi/lib/thumb/v7e-m+fp/hard/libnosys.a(sbrk.o)
                                        0x12f (size before relaxing)
 .debug_str     0x0000000000019973       0x2f /usr/lib/gcc/arm-none-eabi/9.2.1/../../../arm-none-eabi/lib/thumb/v7e-m+fp/hard/libnosys.a(_exit.o)
                                        0x19f (size before relaxing)

.comment        0x0000000000000000       0xa7
 .comment       0x0000000000000000       0x59 sdram.o
                                         0x5a (size before relaxing)
 .comment       0x0000000000000059       0x5a lcd.o
 .comment       0x0000000000000059       0x5a clock.o
 .comment       0x0000000000000059       0x5a labo4.o
 .comment       0x0000000000000059       0x5a /home/juan/Documents/VIII_Semestre/Labo_Micros/Labos_con_Luisja/Laboratorio_Microcontroladores/Laboratorio_4/src/libopencm3-examples/libopencm3/lib/libopencm3_stm32f4.a(fmc_common_f47.o)
 .comment       0x0000000000000059       0x5a /home/juan/Documents/VIII_Semestre/Labo_Micros/Labos_con_Luisja/Laboratorio_Microcontroladores/Laboratorio_4/src/libopencm3-examples/libopencm3/lib/libopencm3_stm32f4.a(gpio_common_all.o)
 .comment       0x0000000000000059       0x5a /home/juan/Documents/VIII_Semestre/Labo_Micros/Labos_con_Luisja/Laboratorio_Microcontroladores/Laboratorio_4/src/libopencm3-examples/libopencm3/lib/libopencm3_stm32f4.a(gpio_common_f0234.o)
 .comment       0x0000000000000059       0x5a /home/juan/Documents/VIII_Semestre/Labo_Micros/Labos_con_Luisja/Laboratorio_Microcontroladores/Laboratorio_4/src/libopencm3-examples/libopencm3/lib/libopencm3_stm32f4.a(rcc_common_all.o)
 .comment       0x0000000000000059       0x5a /home/juan/Documents/VIII_Semestre/Labo_Micros/Labos_con_Luisja/Laboratorio_Microcontroladores/Laboratorio_4/src/libopencm3-examples/libopencm3/lib/libopencm3_stm32f4.a(rcc.o)
 .comment       0x0000000000000059       0x5a /home/juan/Documents/VIII_Semestre/Labo_Micros/Labos_con_Luisja/Laboratorio_Microcontroladores/Laboratorio_4/src/libopencm3-examples/libopencm3/lib/libopencm3_stm32f4.a(spi_common_all.o)
 .comment       0x0000000000000059       0x5a /home/juan/Documents/VIII_Semestre/Labo_Micros/Labos_con_Luisja/Laboratorio_Microcontroladores/Laboratorio_4/src/libopencm3-examples/libopencm3/lib/libopencm3_stm32f4.a(spi_common_v1.o)
 .comment       0x0000000000000059       0x5a /home/juan/Documents/VIII_Semestre/Labo_Micros/Labos_con_Luisja/Laboratorio_Microcontroladores/Laboratorio_4/src/libopencm3-examples/libopencm3/lib/libopencm3_stm32f4.a(usart_common_all.o)
 .comment       0x0000000000000059       0x5a /home/juan/Documents/VIII_Semestre/Labo_Micros/Labos_con_Luisja/Laboratorio_Microcontroladores/Laboratorio_4/src/libopencm3-examples/libopencm3/lib/libopencm3_stm32f4.a(vector.o)
 .comment       0x0000000000000059       0x5a /home/juan/Documents/VIII_Semestre/Labo_Micros/Labos_con_Luisja/Laboratorio_Microcontroladores/Laboratorio_4/src/libopencm3-examples/libopencm3/lib/libopencm3_stm32f4.a(systick.o)
 .comment       0x0000000000000059       0x5a /home/juan/Documents/VIII_Semestre/Labo_Micros/Labos_con_Luisja/Laboratorio_Microcontroladores/Laboratorio_4/src/libopencm3-examples/libopencm3/lib/libopencm3_stm32f4.a(flash_common_all.o)
 .comment       0x0000000000000059       0x5a /home/juan/Documents/VIII_Semestre/Labo_Micros/Labos_con_Luisja/Laboratorio_Microcontroladores/Laboratorio_4/src/libopencm3-examples/libopencm3/lib/libopencm3_stm32f4.a(flash_common_idcache.o)
 .comment       0x0000000000000059       0x5a /home/juan/Documents/VIII_Semestre/Labo_Micros/Labos_con_Luisja/Laboratorio_Microcontroladores/Laboratorio_4/src/libopencm3-examples/libopencm3/lib/libopencm3_stm32f4.a(pwr.o)
 .comment       0x0000000000000059       0x4e /usr/lib/gcc/arm-none-eabi/9.2.1/../../../arm-none-eabi/lib/thumb/v7e-m+fp/hard/libc.a(lib_a-printf.o)
                                         0x4f (size before relaxing)
 .comment       0x00000000000000a7       0x4f /usr/lib/gcc/arm-none-eabi/9.2.1/../../../arm-none-eabi/lib/thumb/v7e-m+fp/hard/libc.a(lib_a-puts.o)
 .comment       0x00000000000000a7       0x4f /usr/lib/gcc/arm-none-eabi/9.2.1/../../../arm-none-eabi/lib/thumb/v7e-m+fp/hard/libc.a(lib_a-vfprintf.o)
 .comment       0x00000000000000a7       0x4f /usr/lib/gcc/arm-none-eabi/9.2.1/../../../arm-none-eabi/lib/thumb/v7e-m+fp/hard/libc.a(lib_a-wsetup.o)
 .comment       0x00000000000000a7       0x4f /usr/lib/gcc/arm-none-eabi/9.2.1/../../../arm-none-eabi/lib/thumb/v7e-m+fp/hard/libc.a(lib_a-dtoa.o)
 .comment       0x00000000000000a7       0x4f /usr/lib/gcc/arm-none-eabi/9.2.1/../../../arm-none-eabi/lib/thumb/v7e-m+fp/hard/libc.a(lib_a-fflush.o)
 .comment       0x00000000000000a7       0x4f /usr/lib/gcc/arm-none-eabi/9.2.1/../../../arm-none-eabi/lib/thumb/v7e-m+fp/hard/libc.a(lib_a-findfp.o)
 .comment       0x00000000000000a7       0x4f /usr/lib/gcc/arm-none-eabi/9.2.1/../../../arm-none-eabi/lib/thumb/v7e-m+fp/hard/libc.a(lib_a-freer.o)
 .comment       0x00000000000000a7       0x4f /usr/lib/gcc/arm-none-eabi/9.2.1/../../../arm-none-eabi/lib/thumb/v7e-m+fp/hard/libc.a(lib_a-fvwrite.o)
 .comment       0x00000000000000a7       0x4f /usr/lib/gcc/arm-none-eabi/9.2.1/../../../arm-none-eabi/lib/thumb/v7e-m+fp/hard/libc.a(lib_a-fwalk.o)
 .comment       0x00000000000000a7       0x4f /usr/lib/gcc/arm-none-eabi/9.2.1/../../../arm-none-eabi/lib/thumb/v7e-m+fp/hard/libc.a(lib_a-impure.o)
 .comment       0x00000000000000a7       0x4f /usr/lib/gcc/arm-none-eabi/9.2.1/../../../arm-none-eabi/lib/thumb/v7e-m+fp/hard/libc.a(lib_a-localeconv.o)
 .comment       0x00000000000000a7       0x4f /usr/lib/gcc/arm-none-eabi/9.2.1/../../../arm-none-eabi/lib/thumb/v7e-m+fp/hard/libc.a(lib_a-makebuf.o)
 .comment       0x00000000000000a7       0x4f /usr/lib/gcc/arm-none-eabi/9.2.1/../../../arm-none-eabi/lib/thumb/v7e-m+fp/hard/libc.a(lib_a-mallocr.o)
 .comment       0x00000000000000a7       0x4f /usr/lib/gcc/arm-none-eabi/9.2.1/../../../arm-none-eabi/lib/thumb/v7e-m+fp/hard/libc.a(lib_a-memmove.o)
 .comment       0x00000000000000a7       0x4f /usr/lib/gcc/arm-none-eabi/9.2.1/../../../arm-none-eabi/lib/thumb/v7e-m+fp/hard/libc.a(lib_a-memset.o)
 .comment       0x00000000000000a7       0x4f /usr/lib/gcc/arm-none-eabi/9.2.1/../../../arm-none-eabi/lib/thumb/v7e-m+fp/hard/libc.a(lib_a-mlock.o)
 .comment       0x00000000000000a7       0x4f /usr/lib/gcc/arm-none-eabi/9.2.1/../../../arm-none-eabi/lib/thumb/v7e-m+fp/hard/libc.a(lib_a-mprec.o)
 .comment       0x00000000000000a7       0x4f /usr/lib/gcc/arm-none-eabi/9.2.1/../../../arm-none-eabi/lib/thumb/v7e-m+fp/hard/libc.a(lib_a-reallocr.o)
 .comment       0x00000000000000a7       0x4f /usr/lib/gcc/arm-none-eabi/9.2.1/../../../arm-none-eabi/lib/thumb/v7e-m+fp/hard/libc.a(lib_a-sbrkr.o)
 .comment       0x00000000000000a7       0x4f /usr/lib/gcc/arm-none-eabi/9.2.1/../../../arm-none-eabi/lib/thumb/v7e-m+fp/hard/libc.a(lib_a-stdio.o)
 .comment       0x00000000000000a7       0x4f /usr/lib/gcc/arm-none-eabi/9.2.1/../../../arm-none-eabi/lib/thumb/v7e-m+fp/hard/libc.a(lib_a-vfiprintf.o)
 .comment       0x00000000000000a7       0x4f /usr/lib/gcc/arm-none-eabi/9.2.1/../../../arm-none-eabi/lib/thumb/v7e-m+fp/hard/libc.a(lib_a-writer.o)
 .comment       0x00000000000000a7       0x4f /usr/lib/gcc/arm-none-eabi/9.2.1/../../../arm-none-eabi/lib/thumb/v7e-m+fp/hard/libc.a(lib_a-assert.o)
 .comment       0x00000000000000a7       0x4f /usr/lib/gcc/arm-none-eabi/9.2.1/../../../arm-none-eabi/lib/thumb/v7e-m+fp/hard/libc.a(lib_a-callocr.o)
 .comment       0x00000000000000a7       0x4f /usr/lib/gcc/arm-none-eabi/9.2.1/../../../arm-none-eabi/lib/thumb/v7e-m+fp/hard/libc.a(lib_a-closer.o)
 .comment       0x00000000000000a7       0x4f /usr/lib/gcc/arm-none-eabi/9.2.1/../../../arm-none-eabi/lib/thumb/v7e-m+fp/hard/libc.a(lib_a-fclose.o)
 .comment       0x00000000000000a7       0x4f /usr/lib/gcc/arm-none-eabi/9.2.1/../../../arm-none-eabi/lib/thumb/v7e-m+fp/hard/libc.a(lib_a-fiprintf.o)
 .comment       0x00000000000000a7       0x4f /usr/lib/gcc/arm-none-eabi/9.2.1/../../../arm-none-eabi/lib/thumb/v7e-m+fp/hard/libc.a(lib_a-fputwc.o)
 .comment       0x00000000000000a7       0x4f /usr/lib/gcc/arm-none-eabi/9.2.1/../../../arm-none-eabi/lib/thumb/v7e-m+fp/hard/libc.a(lib_a-fstatr.o)
 .comment       0x00000000000000a7       0x4f /usr/lib/gcc/arm-none-eabi/9.2.1/../../../arm-none-eabi/lib/thumb/v7e-m+fp/hard/libc.a(lib_a-isattyr.o)
 .comment       0x00000000000000a7       0x4f /usr/lib/gcc/arm-none-eabi/9.2.1/../../../arm-none-eabi/lib/thumb/v7e-m+fp/hard/libc.a(lib_a-locale.o)
 .comment       0x00000000000000a7       0x4f /usr/lib/gcc/arm-none-eabi/9.2.1/../../../arm-none-eabi/lib/thumb/v7e-m+fp/hard/libc.a(lib_a-lseekr.o)
 .comment       0x00000000000000a7       0x4f /usr/lib/gcc/arm-none-eabi/9.2.1/../../../arm-none-eabi/lib/thumb/v7e-m+fp/hard/libc.a(lib_a-mbtowc_r.o)
 .comment       0x00000000000000a7       0x4f /usr/lib/gcc/arm-none-eabi/9.2.1/../../../arm-none-eabi/lib/thumb/v7e-m+fp/hard/libc.a(lib_a-readr.o)
 .comment       0x00000000000000a7       0x4f /usr/lib/gcc/arm-none-eabi/9.2.1/../../../arm-none-eabi/lib/thumb/v7e-m+fp/hard/libc.a(lib_a-reent.o)
 .comment       0x00000000000000a7       0x4f /usr/lib/gcc/arm-none-eabi/9.2.1/../../../arm-none-eabi/lib/thumb/v7e-m+fp/hard/libc.a(lib_a-wbuf.o)
 .comment       0x00000000000000a7       0x4f /usr/lib/gcc/arm-none-eabi/9.2.1/../../../arm-none-eabi/lib/thumb/v7e-m+fp/hard/libc.a(lib_a-wcrtomb.o)
 .comment       0x00000000000000a7       0x4f /usr/lib/gcc/arm-none-eabi/9.2.1/../../../arm-none-eabi/lib/thumb/v7e-m+fp/hard/libc.a(lib_a-wctomb_r.o)
 .comment       0x00000000000000a7       0x4f /usr/lib/gcc/arm-none-eabi/9.2.1/../../../arm-none-eabi/lib/thumb/v7e-m+fp/hard/libc.a(lib_a-abort.o)
 .comment       0x00000000000000a7       0x4f /usr/lib/gcc/arm-none-eabi/9.2.1/../../../arm-none-eabi/lib/thumb/v7e-m+fp/hard/libc.a(lib_a-ctype_.o)
 .comment       0x00000000000000a7       0x4f /usr/lib/gcc/arm-none-eabi/9.2.1/../../../arm-none-eabi/lib/thumb/v7e-m+fp/hard/libc.a(lib_a-signal.o)
 .comment       0x00000000000000a7       0x4f /usr/lib/gcc/arm-none-eabi/9.2.1/../../../arm-none-eabi/lib/thumb/v7e-m+fp/hard/libc.a(lib_a-signalr.o)
 .comment       0x00000000000000a7       0x5a /usr/lib/gcc/arm-none-eabi/9.2.1/thumb/v7e-m+fp/hard/libgcc.a(_udivmoddi4.o)
 .comment       0x00000000000000a7       0x4f /usr/lib/gcc/arm-none-eabi/9.2.1/../../../arm-none-eabi/lib/thumb/v7e-m+fp/hard/libnosys.a(close.o)
 .comment       0x00000000000000a7       0x4f /usr/lib/gcc/arm-none-eabi/9.2.1/../../../arm-none-eabi/lib/thumb/v7e-m+fp/hard/libnosys.a(fstat.o)
 .comment       0x00000000000000a7       0x4f /usr/lib/gcc/arm-none-eabi/9.2.1/../../../arm-none-eabi/lib/thumb/v7e-m+fp/hard/libnosys.a(getpid.o)
 .comment       0x00000000000000a7       0x4f /usr/lib/gcc/arm-none-eabi/9.2.1/../../../arm-none-eabi/lib/thumb/v7e-m+fp/hard/libnosys.a(isatty.o)
 .comment       0x00000000000000a7       0x4f /usr/lib/gcc/arm-none-eabi/9.2.1/../../../arm-none-eabi/lib/thumb/v7e-m+fp/hard/libnosys.a(kill.o)
 .comment       0x00000000000000a7       0x4f /usr/lib/gcc/arm-none-eabi/9.2.1/../../../arm-none-eabi/lib/thumb/v7e-m+fp/hard/libnosys.a(lseek.o)
 .comment       0x00000000000000a7       0x4f /usr/lib/gcc/arm-none-eabi/9.2.1/../../../arm-none-eabi/lib/thumb/v7e-m+fp/hard/libnosys.a(read.o)
 .comment       0x00000000000000a7       0x4f /usr/lib/gcc/arm-none-eabi/9.2.1/../../../arm-none-eabi/lib/thumb/v7e-m+fp/hard/libnosys.a(sbrk.o)
 .comment       0x00000000000000a7       0x4f /usr/lib/gcc/arm-none-eabi/9.2.1/../../../arm-none-eabi/lib/thumb/v7e-m+fp/hard/libnosys.a(_exit.o)

.ARM.attributes
                0x0000000000000000       0x32
 .ARM.attributes
                0x0000000000000000       0x34 sdram.o
 .ARM.attributes
                0x0000000000000034       0x34 lcd.o
 .ARM.attributes
                0x0000000000000068       0x34 clock.o
 .ARM.attributes
                0x000000000000009c       0x34 labo4.o
 .ARM.attributes
                0x00000000000000d0       0x34 /home/juan/Documents/VIII_Semestre/Labo_Micros/Labos_con_Luisja/Laboratorio_Microcontroladores/Laboratorio_4/src/libopencm3-examples/libopencm3/lib/libopencm3_stm32f4.a(fmc_common_f47.o)
 .ARM.attributes
                0x0000000000000104       0x34 /home/juan/Documents/VIII_Semestre/Labo_Micros/Labos_con_Luisja/Laboratorio_Microcontroladores/Laboratorio_4/src/libopencm3-examples/libopencm3/lib/libopencm3_stm32f4.a(gpio_common_all.o)
 .ARM.attributes
                0x0000000000000138       0x34 /home/juan/Documents/VIII_Semestre/Labo_Micros/Labos_con_Luisja/Laboratorio_Microcontroladores/Laboratorio_4/src/libopencm3-examples/libopencm3/lib/libopencm3_stm32f4.a(gpio_common_f0234.o)
 .ARM.attributes
                0x000000000000016c       0x34 /home/juan/Documents/VIII_Semestre/Labo_Micros/Labos_con_Luisja/Laboratorio_Microcontroladores/Laboratorio_4/src/libopencm3-examples/libopencm3/lib/libopencm3_stm32f4.a(rcc_common_all.o)
 .ARM.attributes
                0x00000000000001a0       0x34 /home/juan/Documents/VIII_Semestre/Labo_Micros/Labos_con_Luisja/Laboratorio_Microcontroladores/Laboratorio_4/src/libopencm3-examples/libopencm3/lib/libopencm3_stm32f4.a(rcc.o)
 .ARM.attributes
                0x00000000000001d4       0x34 /home/juan/Documents/VIII_Semestre/Labo_Micros/Labos_con_Luisja/Laboratorio_Microcontroladores/Laboratorio_4/src/libopencm3-examples/libopencm3/lib/libopencm3_stm32f4.a(spi_common_all.o)
 .ARM.attributes
                0x0000000000000208       0x34 /home/juan/Documents/VIII_Semestre/Labo_Micros/Labos_con_Luisja/Laboratorio_Microcontroladores/Laboratorio_4/src/libopencm3-examples/libopencm3/lib/libopencm3_stm32f4.a(spi_common_v1.o)
 .ARM.attributes
                0x000000000000023c       0x34 /home/juan/Documents/VIII_Semestre/Labo_Micros/Labos_con_Luisja/Laboratorio_Microcontroladores/Laboratorio_4/src/libopencm3-examples/libopencm3/lib/libopencm3_stm32f4.a(usart_common_all.o)
 .ARM.attributes
                0x0000000000000270       0x34 /home/juan/Documents/VIII_Semestre/Labo_Micros/Labos_con_Luisja/Laboratorio_Microcontroladores/Laboratorio_4/src/libopencm3-examples/libopencm3/lib/libopencm3_stm32f4.a(vector.o)
 .ARM.attributes
                0x00000000000002a4       0x34 /home/juan/Documents/VIII_Semestre/Labo_Micros/Labos_con_Luisja/Laboratorio_Microcontroladores/Laboratorio_4/src/libopencm3-examples/libopencm3/lib/libopencm3_stm32f4.a(systick.o)
 .ARM.attributes
                0x00000000000002d8       0x34 /home/juan/Documents/VIII_Semestre/Labo_Micros/Labos_con_Luisja/Laboratorio_Microcontroladores/Laboratorio_4/src/libopencm3-examples/libopencm3/lib/libopencm3_stm32f4.a(flash_common_all.o)
 .ARM.attributes
                0x000000000000030c       0x34 /home/juan/Documents/VIII_Semestre/Labo_Micros/Labos_con_Luisja/Laboratorio_Microcontroladores/Laboratorio_4/src/libopencm3-examples/libopencm3/lib/libopencm3_stm32f4.a(flash_common_idcache.o)
 .ARM.attributes
                0x0000000000000340       0x34 /home/juan/Documents/VIII_Semestre/Labo_Micros/Labos_con_Luisja/Laboratorio_Microcontroladores/Laboratorio_4/src/libopencm3-examples/libopencm3/lib/libopencm3_stm32f4.a(pwr.o)
 .ARM.attributes
                0x0000000000000374       0x34 /usr/lib/gcc/arm-none-eabi/9.2.1/../../../arm-none-eabi/lib/thumb/v7e-m+fp/hard/libc.a(lib_a-printf.o)
 .ARM.attributes
                0x00000000000003a8       0x34 /usr/lib/gcc/arm-none-eabi/9.2.1/../../../arm-none-eabi/lib/thumb/v7e-m+fp/hard/libc.a(lib_a-puts.o)
 .ARM.attributes
                0x00000000000003dc       0x1c /usr/lib/gcc/arm-none-eabi/9.2.1/../../../arm-none-eabi/lib/thumb/v7e-m+fp/hard/libc.a(lib_a-strlen.o)
 .ARM.attributes
                0x00000000000003f8       0x34 /usr/lib/gcc/arm-none-eabi/9.2.1/../../../arm-none-eabi/lib/thumb/v7e-m+fp/hard/libc.a(lib_a-vfprintf.o)
 .ARM.attributes
                0x000000000000042c       0x34 /usr/lib/gcc/arm-none-eabi/9.2.1/../../../arm-none-eabi/lib/thumb/v7e-m+fp/hard/libc.a(lib_a-wsetup.o)
 .ARM.attributes
                0x0000000000000460       0x34 /usr/lib/gcc/arm-none-eabi/9.2.1/../../../arm-none-eabi/lib/thumb/v7e-m+fp/hard/libc.a(lib_a-dtoa.o)
 .ARM.attributes
                0x0000000000000494       0x34 /usr/lib/gcc/arm-none-eabi/9.2.1/../../../arm-none-eabi/lib/thumb/v7e-m+fp/hard/libc.a(lib_a-fflush.o)
 .ARM.attributes
                0x00000000000004c8       0x34 /usr/lib/gcc/arm-none-eabi/9.2.1/../../../arm-none-eabi/lib/thumb/v7e-m+fp/hard/libc.a(lib_a-findfp.o)
 .ARM.attributes
                0x00000000000004fc       0x34 /usr/lib/gcc/arm-none-eabi/9.2.1/../../../arm-none-eabi/lib/thumb/v7e-m+fp/hard/libc.a(lib_a-freer.o)
 .ARM.attributes
                0x0000000000000530       0x34 /usr/lib/gcc/arm-none-eabi/9.2.1/../../../arm-none-eabi/lib/thumb/v7e-m+fp/hard/libc.a(lib_a-fvwrite.o)
 .ARM.attributes
                0x0000000000000564       0x34 /usr/lib/gcc/arm-none-eabi/9.2.1/../../../arm-none-eabi/lib/thumb/v7e-m+fp/hard/libc.a(lib_a-fwalk.o)
 .ARM.attributes
                0x0000000000000598       0x32 /usr/lib/gcc/arm-none-eabi/9.2.1/../../../arm-none-eabi/lib/thumb/v7e-m+fp/hard/libc.a(lib_a-impure.o)
 .ARM.attributes
                0x00000000000005ca       0x34 /usr/lib/gcc/arm-none-eabi/9.2.1/../../../arm-none-eabi/lib/thumb/v7e-m+fp/hard/libc.a(lib_a-localeconv.o)
 .ARM.attributes
                0x00000000000005fe       0x34 /usr/lib/gcc/arm-none-eabi/9.2.1/../../../arm-none-eabi/lib/thumb/v7e-m+fp/hard/libc.a(lib_a-makebuf.o)
 .ARM.attributes
                0x0000000000000632       0x34 /usr/lib/gcc/arm-none-eabi/9.2.1/../../../arm-none-eabi/lib/thumb/v7e-m+fp/hard/libc.a(lib_a-mallocr.o)
 .ARM.attributes
                0x0000000000000666       0x1c /usr/lib/gcc/arm-none-eabi/9.2.1/../../../arm-none-eabi/lib/thumb/v7e-m+fp/hard/libc.a(lib_a-memchr.o)
 .ARM.attributes
                0x0000000000000682       0x1c /usr/lib/gcc/arm-none-eabi/9.2.1/../../../arm-none-eabi/lib/thumb/v7e-m+fp/hard/libc.a(lib_a-memcpy.o)
 .ARM.attributes
                0x000000000000069e       0x34 /usr/lib/gcc/arm-none-eabi/9.2.1/../../../arm-none-eabi/lib/thumb/v7e-m+fp/hard/libc.a(lib_a-memmove.o)
 .ARM.attributes
                0x00000000000006d2       0x34 /usr/lib/gcc/arm-none-eabi/9.2.1/../../../arm-none-eabi/lib/thumb/v7e-m+fp/hard/libc.a(lib_a-memset.o)
 .ARM.attributes
                0x0000000000000706       0x34 /usr/lib/gcc/arm-none-eabi/9.2.1/../../../arm-none-eabi/lib/thumb/v7e-m+fp/hard/libc.a(lib_a-mlock.o)
 .ARM.attributes
                0x000000000000073a       0x34 /usr/lib/gcc/arm-none-eabi/9.2.1/../../../arm-none-eabi/lib/thumb/v7e-m+fp/hard/libc.a(lib_a-mprec.o)
 .ARM.attributes
                0x000000000000076e       0x34 /usr/lib/gcc/arm-none-eabi/9.2.1/../../../arm-none-eabi/lib/thumb/v7e-m+fp/hard/libc.a(lib_a-reallocr.o)
 .ARM.attributes
                0x00000000000007a2       0x34 /usr/lib/gcc/arm-none-eabi/9.2.1/../../../arm-none-eabi/lib/thumb/v7e-m+fp/hard/libc.a(lib_a-sbrkr.o)
 .ARM.attributes
                0x00000000000007d6       0x34 /usr/lib/gcc/arm-none-eabi/9.2.1/../../../arm-none-eabi/lib/thumb/v7e-m+fp/hard/libc.a(lib_a-stdio.o)
 .ARM.attributes
                0x000000000000080a       0x34 /usr/lib/gcc/arm-none-eabi/9.2.1/../../../arm-none-eabi/lib/thumb/v7e-m+fp/hard/libc.a(lib_a-vfiprintf.o)
 .ARM.attributes
                0x000000000000083e       0x34 /usr/lib/gcc/arm-none-eabi/9.2.1/../../../arm-none-eabi/lib/thumb/v7e-m+fp/hard/libc.a(lib_a-writer.o)
 .ARM.attributes
                0x0000000000000872       0x34 /usr/lib/gcc/arm-none-eabi/9.2.1/../../../arm-none-eabi/lib/thumb/v7e-m+fp/hard/libc.a(lib_a-assert.o)
 .ARM.attributes
                0x00000000000008a6       0x34 /usr/lib/gcc/arm-none-eabi/9.2.1/../../../arm-none-eabi/lib/thumb/v7e-m+fp/hard/libc.a(lib_a-callocr.o)
 .ARM.attributes
                0x00000000000008da       0x34 /usr/lib/gcc/arm-none-eabi/9.2.1/../../../arm-none-eabi/lib/thumb/v7e-m+fp/hard/libc.a(lib_a-closer.o)
 .ARM.attributes
                0x000000000000090e       0x34 /usr/lib/gcc/arm-none-eabi/9.2.1/../../../arm-none-eabi/lib/thumb/v7e-m+fp/hard/libc.a(lib_a-fclose.o)
 .ARM.attributes
                0x0000000000000942       0x34 /usr/lib/gcc/arm-none-eabi/9.2.1/../../../arm-none-eabi/lib/thumb/v7e-m+fp/hard/libc.a(lib_a-fiprintf.o)
 .ARM.attributes
                0x0000000000000976       0x34 /usr/lib/gcc/arm-none-eabi/9.2.1/../../../arm-none-eabi/lib/thumb/v7e-m+fp/hard/libc.a(lib_a-fputwc.o)
 .ARM.attributes
                0x00000000000009aa       0x34 /usr/lib/gcc/arm-none-eabi/9.2.1/../../../arm-none-eabi/lib/thumb/v7e-m+fp/hard/libc.a(lib_a-fstatr.o)
 .ARM.attributes
                0x00000000000009de       0x34 /usr/lib/gcc/arm-none-eabi/9.2.1/../../../arm-none-eabi/lib/thumb/v7e-m+fp/hard/libc.a(lib_a-isattyr.o)
 .ARM.attributes
                0x0000000000000a12       0x34 /usr/lib/gcc/arm-none-eabi/9.2.1/../../../arm-none-eabi/lib/thumb/v7e-m+fp/hard/libc.a(lib_a-locale.o)
 .ARM.attributes
                0x0000000000000a46       0x34 /usr/lib/gcc/arm-none-eabi/9.2.1/../../../arm-none-eabi/lib/thumb/v7e-m+fp/hard/libc.a(lib_a-lseekr.o)
 .ARM.attributes
                0x0000000000000a7a       0x34 /usr/lib/gcc/arm-none-eabi/9.2.1/../../../arm-none-eabi/lib/thumb/v7e-m+fp/hard/libc.a(lib_a-mbtowc_r.o)
 .ARM.attributes
                0x0000000000000aae       0x34 /usr/lib/gcc/arm-none-eabi/9.2.1/../../../arm-none-eabi/lib/thumb/v7e-m+fp/hard/libc.a(lib_a-readr.o)
 .ARM.attributes
                0x0000000000000ae2       0x34 /usr/lib/gcc/arm-none-eabi/9.2.1/../../../arm-none-eabi/lib/thumb/v7e-m+fp/hard/libc.a(lib_a-reent.o)
 .ARM.attributes
                0x0000000000000b16       0x1c /usr/lib/gcc/arm-none-eabi/9.2.1/../../../arm-none-eabi/lib/thumb/v7e-m+fp/hard/libc.a(lib_a-strcmp.o)
 .ARM.attributes
                0x0000000000000b32       0x34 /usr/lib/gcc/arm-none-eabi/9.2.1/../../../arm-none-eabi/lib/thumb/v7e-m+fp/hard/libc.a(lib_a-wbuf.o)
 .ARM.attributes
                0x0000000000000b66       0x34 /usr/lib/gcc/arm-none-eabi/9.2.1/../../../arm-none-eabi/lib/thumb/v7e-m+fp/hard/libc.a(lib_a-wcrtomb.o)
 .ARM.attributes
                0x0000000000000b9a       0x34 /usr/lib/gcc/arm-none-eabi/9.2.1/../../../arm-none-eabi/lib/thumb/v7e-m+fp/hard/libc.a(lib_a-wctomb_r.o)
 .ARM.attributes
                0x0000000000000bce       0x34 /usr/lib/gcc/arm-none-eabi/9.2.1/../../../arm-none-eabi/lib/thumb/v7e-m+fp/hard/libc.a(lib_a-abort.o)
 .ARM.attributes
                0x0000000000000c02       0x32 /usr/lib/gcc/arm-none-eabi/9.2.1/../../../arm-none-eabi/lib/thumb/v7e-m+fp/hard/libc.a(lib_a-ctype_.o)
 .ARM.attributes
                0x0000000000000c34       0x34 /usr/lib/gcc/arm-none-eabi/9.2.1/../../../arm-none-eabi/lib/thumb/v7e-m+fp/hard/libc.a(lib_a-signal.o)
 .ARM.attributes
                0x0000000000000c68       0x34 /usr/lib/gcc/arm-none-eabi/9.2.1/../../../arm-none-eabi/lib/thumb/v7e-m+fp/hard/libc.a(lib_a-signalr.o)
 .ARM.attributes
                0x0000000000000c9c       0x1e /usr/lib/gcc/arm-none-eabi/9.2.1/thumb/v7e-m+fp/hard/libgcc.a(_arm_addsubdf3.o)
 .ARM.attributes
                0x0000000000000cba       0x1e /usr/lib/gcc/arm-none-eabi/9.2.1/thumb/v7e-m+fp/hard/libgcc.a(_arm_muldivdf3.o)
 .ARM.attributes
                0x0000000000000cd8       0x1e /usr/lib/gcc/arm-none-eabi/9.2.1/thumb/v7e-m+fp/hard/libgcc.a(_arm_cmpdf2.o)
 .ARM.attributes
                0x0000000000000cf6       0x1e /usr/lib/gcc/arm-none-eabi/9.2.1/thumb/v7e-m+fp/hard/libgcc.a(_arm_unorddf2.o)
 .ARM.attributes
                0x0000000000000d14       0x1e /usr/lib/gcc/arm-none-eabi/9.2.1/thumb/v7e-m+fp/hard/libgcc.a(_arm_fixdfsi.o)
 .ARM.attributes
                0x0000000000000d32       0x1e /usr/lib/gcc/arm-none-eabi/9.2.1/thumb/v7e-m+fp/hard/libgcc.a(_aeabi_uldivmod.o)
 .ARM.attributes
                0x0000000000000d50       0x34 /usr/lib/gcc/arm-none-eabi/9.2.1/thumb/v7e-m+fp/hard/libgcc.a(_udivmoddi4.o)
 .ARM.attributes
                0x0000000000000d84       0x1e /usr/lib/gcc/arm-none-eabi/9.2.1/thumb/v7e-m+fp/hard/libgcc.a(_dvmd_tls.o)
 .ARM.attributes
                0x0000000000000da2       0x34 /usr/lib/gcc/arm-none-eabi/9.2.1/../../../arm-none-eabi/lib/thumb/v7e-m+fp/hard/libnosys.a(close.o)
 .ARM.attributes
                0x0000000000000dd6       0x34 /usr/lib/gcc/arm-none-eabi/9.2.1/../../../arm-none-eabi/lib/thumb/v7e-m+fp/hard/libnosys.a(fstat.o)
 .ARM.attributes
                0x0000000000000e0a       0x34 /usr/lib/gcc/arm-none-eabi/9.2.1/../../../arm-none-eabi/lib/thumb/v7e-m+fp/hard/libnosys.a(getpid.o)
 .ARM.attributes
                0x0000000000000e3e       0x34 /usr/lib/gcc/arm-none-eabi/9.2.1/../../../arm-none-eabi/lib/thumb/v7e-m+fp/hard/libnosys.a(isatty.o)
 .ARM.attributes
                0x0000000000000e72       0x34 /usr/lib/gcc/arm-none-eabi/9.2.1/../../../arm-none-eabi/lib/thumb/v7e-m+fp/hard/libnosys.a(kill.o)
 .ARM.attributes
                0x0000000000000ea6       0x34 /usr/lib/gcc/arm-none-eabi/9.2.1/../../../arm-none-eabi/lib/thumb/v7e-m+fp/hard/libnosys.a(lseek.o)
 .ARM.attributes
                0x0000000000000eda       0x34 /usr/lib/gcc/arm-none-eabi/9.2.1/../../../arm-none-eabi/lib/thumb/v7e-m+fp/hard/libnosys.a(read.o)
 .ARM.attributes
                0x0000000000000f0e       0x34 /usr/lib/gcc/arm-none-eabi/9.2.1/../../../arm-none-eabi/lib/thumb/v7e-m+fp/hard/libnosys.a(sbrk.o)
 .ARM.attributes
                0x0000000000000f42       0x34 /usr/lib/gcc/arm-none-eabi/9.2.1/../../../arm-none-eabi/lib/thumb/v7e-m+fp/hard/libnosys.a(_exit.o)

.debug_frame    0x0000000000000000     0x2130
 .debug_frame   0x0000000000000000       0x30 sdram.o
 .debug_frame   0x0000000000000030       0x9c lcd.o
 .debug_frame   0x00000000000000cc       0x5c clock.o
 .debug_frame   0x0000000000000128       0xb8 labo4.o
 .debug_frame   0x00000000000001e0       0x38 /home/juan/Documents/VIII_Semestre/Labo_Micros/Labos_con_Luisja/Laboratorio_Microcontroladores/Laboratorio_4/src/libopencm3-examples/libopencm3/lib/libopencm3_stm32f4.a(fmc_common_f47.o)
 .debug_frame   0x0000000000000218       0x80 /home/juan/Documents/VIII_Semestre/Labo_Micros/Labos_con_Luisja/Laboratorio_Microcontroladores/Laboratorio_4/src/libopencm3-examples/libopencm3/lib/libopencm3_stm32f4.a(gpio_common_all.o)
 .debug_frame   0x0000000000000298       0x70 /home/juan/Documents/VIII_Semestre/Labo_Micros/Labos_con_Luisja/Laboratorio_Microcontroladores/Laboratorio_4/src/libopencm3-examples/libopencm3/lib/libopencm3_stm32f4.a(gpio_common_f0234.o)
 .debug_frame   0x0000000000000308       0xe0 /home/juan/Documents/VIII_Semestre/Labo_Micros/Labos_con_Luisja/Laboratorio_Microcontroladores/Laboratorio_4/src/libopencm3-examples/libopencm3/lib/libopencm3_stm32f4.a(rcc_common_all.o)
 .debug_frame   0x00000000000003e8      0x234 /home/juan/Documents/VIII_Semestre/Labo_Micros/Labos_con_Luisja/Laboratorio_Microcontroladores/Laboratorio_4/src/libopencm3-examples/libopencm3/lib/libopencm3_stm32f4.a(rcc.o)
 .debug_frame   0x000000000000061c      0x2d0 /home/juan/Documents/VIII_Semestre/Labo_Micros/Labos_con_Luisja/Laboratorio_Microcontroladores/Laboratorio_4/src/libopencm3-examples/libopencm3/lib/libopencm3_stm32f4.a(spi_common_all.o)
 .debug_frame   0x00000000000008ec       0x4c /home/juan/Documents/VIII_Semestre/Labo_Micros/Labos_con_Luisja/Laboratorio_Microcontroladores/Laboratorio_4/src/libopencm3-examples/libopencm3/lib/libopencm3_stm32f4.a(spi_common_v1.o)
 .debug_frame   0x0000000000000938      0x1b4 /home/juan/Documents/VIII_Semestre/Labo_Micros/Labos_con_Luisja/Laboratorio_Microcontroladores/Laboratorio_4/src/libopencm3-examples/libopencm3/lib/libopencm3_stm32f4.a(usart_common_all.o)
 .debug_frame   0x0000000000000aec       0x4c /home/juan/Documents/VIII_Semestre/Labo_Micros/Labos_con_Luisja/Laboratorio_Microcontroladores/Laboratorio_4/src/libopencm3-examples/libopencm3/lib/libopencm3_stm32f4.a(vector.o)
 .debug_frame   0x0000000000000b38       0xd8 /home/juan/Documents/VIII_Semestre/Labo_Micros/Labos_con_Luisja/Laboratorio_Microcontroladores/Laboratorio_4/src/libopencm3-examples/libopencm3/lib/libopencm3_stm32f4.a(systick.o)
 .debug_frame   0x0000000000000c10       0x50 /home/juan/Documents/VIII_Semestre/Labo_Micros/Labos_con_Luisja/Laboratorio_Microcontroladores/Laboratorio_4/src/libopencm3-examples/libopencm3/lib/libopencm3_stm32f4.a(flash_common_all.o)
 .debug_frame   0x0000000000000c60       0x70 /home/juan/Documents/VIII_Semestre/Labo_Micros/Labos_con_Luisja/Laboratorio_Microcontroladores/Laboratorio_4/src/libopencm3-examples/libopencm3/lib/libopencm3_stm32f4.a(flash_common_idcache.o)
 .debug_frame   0x0000000000000cd0       0x20 /home/juan/Documents/VIII_Semestre/Labo_Micros/Labos_con_Luisja/Laboratorio_Microcontroladores/Laboratorio_4/src/libopencm3-examples/libopencm3/lib/libopencm3_stm32f4.a(pwr.o)
 .debug_frame   0x0000000000000cf0       0x74 /usr/lib/gcc/arm-none-eabi/9.2.1/../../../arm-none-eabi/lib/thumb/v7e-m+fp/hard/libc.a(lib_a-printf.o)
 .debug_frame   0x0000000000000d64       0x44 /usr/lib/gcc/arm-none-eabi/9.2.1/../../../arm-none-eabi/lib/thumb/v7e-m+fp/hard/libc.a(lib_a-puts.o)
 .debug_frame   0x0000000000000da8       0x84 /usr/lib/gcc/arm-none-eabi/9.2.1/../../../arm-none-eabi/lib/thumb/v7e-m+fp/hard/libc.a(lib_a-vfprintf.o)
 .debug_frame   0x0000000000000e2c       0x2c /usr/lib/gcc/arm-none-eabi/9.2.1/../../../arm-none-eabi/lib/thumb/v7e-m+fp/hard/libc.a(lib_a-wsetup.o)
 .debug_frame   0x0000000000000e58       0x8c /usr/lib/gcc/arm-none-eabi/9.2.1/../../../arm-none-eabi/lib/thumb/v7e-m+fp/hard/libc.a(lib_a-dtoa.o)
 .debug_frame   0x0000000000000ee4       0x68 /usr/lib/gcc/arm-none-eabi/9.2.1/../../../arm-none-eabi/lib/thumb/v7e-m+fp/hard/libc.a(lib_a-fflush.o)
 .debug_frame   0x0000000000000f4c      0x120 /usr/lib/gcc/arm-none-eabi/9.2.1/../../../arm-none-eabi/lib/thumb/v7e-m+fp/hard/libc.a(lib_a-findfp.o)
 .debug_frame   0x000000000000106c       0x8c /usr/lib/gcc/arm-none-eabi/9.2.1/../../../arm-none-eabi/lib/thumb/v7e-m+fp/hard/libc.a(lib_a-freer.o)
 .debug_frame   0x00000000000010f8       0x64 /usr/lib/gcc/arm-none-eabi/9.2.1/../../../arm-none-eabi/lib/thumb/v7e-m+fp/hard/libc.a(lib_a-fvwrite.o)
 .debug_frame   0x000000000000115c       0x54 /usr/lib/gcc/arm-none-eabi/9.2.1/../../../arm-none-eabi/lib/thumb/v7e-m+fp/hard/libc.a(lib_a-fwalk.o)
 .debug_frame   0x00000000000011b0       0x40 /usr/lib/gcc/arm-none-eabi/9.2.1/../../../arm-none-eabi/lib/thumb/v7e-m+fp/hard/libc.a(lib_a-localeconv.o)
 .debug_frame   0x00000000000011f0       0x64 /usr/lib/gcc/arm-none-eabi/9.2.1/../../../arm-none-eabi/lib/thumb/v7e-m+fp/hard/libc.a(lib_a-makebuf.o)
 .debug_frame   0x0000000000001254       0x4c /usr/lib/gcc/arm-none-eabi/9.2.1/../../../arm-none-eabi/lib/thumb/v7e-m+fp/hard/libc.a(lib_a-mallocr.o)
 .debug_frame   0x00000000000012a0       0x40 /usr/lib/gcc/arm-none-eabi/9.2.1/../../../arm-none-eabi/lib/thumb/v7e-m+fp/hard/libc.a(lib_a-memmove.o)
 .debug_frame   0x00000000000012e0       0x38 /usr/lib/gcc/arm-none-eabi/9.2.1/../../../arm-none-eabi/lib/thumb/v7e-m+fp/hard/libc.a(lib_a-memset.o)
 .debug_frame   0x0000000000001318       0x30 /usr/lib/gcc/arm-none-eabi/9.2.1/../../../arm-none-eabi/lib/thumb/v7e-m+fp/hard/libc.a(lib_a-mlock.o)
 .debug_frame   0x0000000000001348      0x268 /usr/lib/gcc/arm-none-eabi/9.2.1/../../../arm-none-eabi/lib/thumb/v7e-m+fp/hard/libc.a(lib_a-mprec.o)
 .debug_frame   0x00000000000015b0       0x48 /usr/lib/gcc/arm-none-eabi/9.2.1/../../../arm-none-eabi/lib/thumb/v7e-m+fp/hard/libc.a(lib_a-reallocr.o)
 .debug_frame   0x00000000000015f8       0x2c /usr/lib/gcc/arm-none-eabi/9.2.1/../../../arm-none-eabi/lib/thumb/v7e-m+fp/hard/libc.a(lib_a-sbrkr.o)
 .debug_frame   0x0000000000001624       0x8c /usr/lib/gcc/arm-none-eabi/9.2.1/../../../arm-none-eabi/lib/thumb/v7e-m+fp/hard/libc.a(lib_a-stdio.o)
 .debug_frame   0x00000000000016b0       0xc8 /usr/lib/gcc/arm-none-eabi/9.2.1/../../../arm-none-eabi/lib/thumb/v7e-m+fp/hard/libc.a(lib_a-vfiprintf.o)
 .debug_frame   0x0000000000001778       0x2c /usr/lib/gcc/arm-none-eabi/9.2.1/../../../arm-none-eabi/lib/thumb/v7e-m+fp/hard/libc.a(lib_a-writer.o)
 .debug_frame   0x00000000000017a4       0x40 /usr/lib/gcc/arm-none-eabi/9.2.1/../../../arm-none-eabi/lib/thumb/v7e-m+fp/hard/libc.a(lib_a-assert.o)
 .debug_frame   0x00000000000017e4       0x28 /usr/lib/gcc/arm-none-eabi/9.2.1/../../../arm-none-eabi/lib/thumb/v7e-m+fp/hard/libc.a(lib_a-callocr.o)
 .debug_frame   0x000000000000180c       0x2c /usr/lib/gcc/arm-none-eabi/9.2.1/../../../arm-none-eabi/lib/thumb/v7e-m+fp/hard/libc.a(lib_a-closer.o)
 .debug_frame   0x0000000000001838       0x3c /usr/lib/gcc/arm-none-eabi/9.2.1/../../../arm-none-eabi/lib/thumb/v7e-m+fp/hard/libc.a(lib_a-fclose.o)
 .debug_frame   0x0000000000001874       0x70 /usr/lib/gcc/arm-none-eabi/9.2.1/../../../arm-none-eabi/lib/thumb/v7e-m+fp/hard/libc.a(lib_a-fiprintf.o)
 .debug_frame   0x00000000000018e4       0x8c /usr/lib/gcc/arm-none-eabi/9.2.1/../../../arm-none-eabi/lib/thumb/v7e-m+fp/hard/libc.a(lib_a-fputwc.o)
 .debug_frame   0x0000000000001970       0x2c /usr/lib/gcc/arm-none-eabi/9.2.1/../../../arm-none-eabi/lib/thumb/v7e-m+fp/hard/libc.a(lib_a-fstatr.o)
 .debug_frame   0x000000000000199c       0x2c /usr/lib/gcc/arm-none-eabi/9.2.1/../../../arm-none-eabi/lib/thumb/v7e-m+fp/hard/libc.a(lib_a-isattyr.o)
 .debug_frame   0x00000000000019c8       0x54 /usr/lib/gcc/arm-none-eabi/9.2.1/../../../arm-none-eabi/lib/thumb/v7e-m+fp/hard/libc.a(lib_a-locale.o)
 .debug_frame   0x0000000000001a1c       0x2c /usr/lib/gcc/arm-none-eabi/9.2.1/../../../arm-none-eabi/lib/thumb/v7e-m+fp/hard/libc.a(lib_a-lseekr.o)
 .debug_frame   0x0000000000001a48       0x4c /usr/lib/gcc/arm-none-eabi/9.2.1/../../../arm-none-eabi/lib/thumb/v7e-m+fp/hard/libc.a(lib_a-mbtowc_r.o)
 .debug_frame   0x0000000000001a94       0x2c /usr/lib/gcc/arm-none-eabi/9.2.1/../../../arm-none-eabi/lib/thumb/v7e-m+fp/hard/libc.a(lib_a-readr.o)
 .debug_frame   0x0000000000001ac0       0x60 /usr/lib/gcc/arm-none-eabi/9.2.1/../../../arm-none-eabi/lib/thumb/v7e-m+fp/hard/libc.a(lib_a-reent.o)
 .debug_frame   0x0000000000001b20       0x68 /usr/lib/gcc/arm-none-eabi/9.2.1/../../../arm-none-eabi/lib/thumb/v7e-m+fp/hard/libc.a(lib_a-strcmp.o)
 .debug_frame   0x0000000000001b88       0x40 /usr/lib/gcc/arm-none-eabi/9.2.1/../../../arm-none-eabi/lib/thumb/v7e-m+fp/hard/libc.a(lib_a-wbuf.o)
 .debug_frame   0x0000000000001bc8       0x64 /usr/lib/gcc/arm-none-eabi/9.2.1/../../../arm-none-eabi/lib/thumb/v7e-m+fp/hard/libc.a(lib_a-wcrtomb.o)
 .debug_frame   0x0000000000001c2c       0x3c /usr/lib/gcc/arm-none-eabi/9.2.1/../../../arm-none-eabi/lib/thumb/v7e-m+fp/hard/libc.a(lib_a-wctomb_r.o)
 .debug_frame   0x0000000000001c68       0x28 /usr/lib/gcc/arm-none-eabi/9.2.1/../../../arm-none-eabi/lib/thumb/v7e-m+fp/hard/libc.a(lib_a-abort.o)
 .debug_frame   0x0000000000001c90       0xe0 /usr/lib/gcc/arm-none-eabi/9.2.1/../../../arm-none-eabi/lib/thumb/v7e-m+fp/hard/libc.a(lib_a-signal.o)
 .debug_frame   0x0000000000001d70       0x3c /usr/lib/gcc/arm-none-eabi/9.2.1/../../../arm-none-eabi/lib/thumb/v7e-m+fp/hard/libc.a(lib_a-signalr.o)
 .debug_frame   0x0000000000001dac       0xac /usr/lib/gcc/arm-none-eabi/9.2.1/thumb/v7e-m+fp/hard/libgcc.a(_arm_addsubdf3.o)
 .debug_frame   0x0000000000001e58       0x50 /usr/lib/gcc/arm-none-eabi/9.2.1/thumb/v7e-m+fp/hard/libgcc.a(_arm_muldivdf3.o)
 .debug_frame   0x0000000000001ea8       0xc4 /usr/lib/gcc/arm-none-eabi/9.2.1/thumb/v7e-m+fp/hard/libgcc.a(_arm_cmpdf2.o)
 .debug_frame   0x0000000000001f6c       0x20 /usr/lib/gcc/arm-none-eabi/9.2.1/thumb/v7e-m+fp/hard/libgcc.a(_arm_unorddf2.o)
 .debug_frame   0x0000000000001f8c       0x24 /usr/lib/gcc/arm-none-eabi/9.2.1/thumb/v7e-m+fp/hard/libgcc.a(_arm_fixdfsi.o)
 .debug_frame   0x0000000000001fb0       0x2c /usr/lib/gcc/arm-none-eabi/9.2.1/thumb/v7e-m+fp/hard/libgcc.a(_aeabi_uldivmod.o)
 .debug_frame   0x0000000000001fdc       0x34 /usr/lib/gcc/arm-none-eabi/9.2.1/thumb/v7e-m+fp/hard/libgcc.a(_udivmoddi4.o)
 .debug_frame   0x0000000000002010       0x20 /usr/lib/gcc/arm-none-eabi/9.2.1/../../../arm-none-eabi/lib/thumb/v7e-m+fp/hard/libnosys.a(close.o)
 .debug_frame   0x0000000000002030       0x20 /usr/lib/gcc/arm-none-eabi/9.2.1/../../../arm-none-eabi/lib/thumb/v7e-m+fp/hard/libnosys.a(fstat.o)
 .debug_frame   0x0000000000002050       0x20 /usr/lib/gcc/arm-none-eabi/9.2.1/../../../arm-none-eabi/lib/thumb/v7e-m+fp/hard/libnosys.a(getpid.o)
 .debug_frame   0x0000000000002070       0x20 /usr/lib/gcc/arm-none-eabi/9.2.1/../../../arm-none-eabi/lib/thumb/v7e-m+fp/hard/libnosys.a(isatty.o)
 .debug_frame   0x0000000000002090       0x20 /usr/lib/gcc/arm-none-eabi/9.2.1/../../../arm-none-eabi/lib/thumb/v7e-m+fp/hard/libnosys.a(kill.o)
 .debug_frame   0x00000000000020b0       0x20 /usr/lib/gcc/arm-none-eabi/9.2.1/../../../arm-none-eabi/lib/thumb/v7e-m+fp/hard/libnosys.a(lseek.o)
 .debug_frame   0x00000000000020d0       0x20 /usr/lib/gcc/arm-none-eabi/9.2.1/../../../arm-none-eabi/lib/thumb/v7e-m+fp/hard/libnosys.a(read.o)
 .debug_frame   0x00000000000020f0       0x20 /usr/lib/gcc/arm-none-eabi/9.2.1/../../../arm-none-eabi/lib/thumb/v7e-m+fp/hard/libnosys.a(sbrk.o)
 .debug_frame   0x0000000000002110       0x20 /usr/lib/gcc/arm-none-eabi/9.2.1/../../../arm-none-eabi/lib/thumb/v7e-m+fp/hard/libnosys.a(_exit.o)

.stab           0x0000000000000000       0xb4
 .stab          0x0000000000000000       0x24 /usr/lib/gcc/arm-none-eabi/9.2.1/../../../arm-none-eabi/lib/thumb/v7e-m+fp/hard/libnosys.a(close.o)
 .stab          0x0000000000000024       0x18 /usr/lib/gcc/arm-none-eabi/9.2.1/../../../arm-none-eabi/lib/thumb/v7e-m+fp/hard/libnosys.a(fstat.o)
                                         0x24 (size before relaxing)
 .stab          0x000000000000003c       0x18 /usr/lib/gcc/arm-none-eabi/9.2.1/../../../arm-none-eabi/lib/thumb/v7e-m+fp/hard/libnosys.a(getpid.o)
                                         0x24 (size before relaxing)
 .stab          0x0000000000000054       0x18 /usr/lib/gcc/arm-none-eabi/9.2.1/../../../arm-none-eabi/lib/thumb/v7e-m+fp/hard/libnosys.a(isatty.o)
                                         0x24 (size before relaxing)
 .stab          0x000000000000006c       0x18 /usr/lib/gcc/arm-none-eabi/9.2.1/../../../arm-none-eabi/lib/thumb/v7e-m+fp/hard/libnosys.a(kill.o)
                                         0x24 (size before relaxing)
 .stab          0x0000000000000084       0x18 /usr/lib/gcc/arm-none-eabi/9.2.1/../../../arm-none-eabi/lib/thumb/v7e-m+fp/hard/libnosys.a(lseek.o)
                                         0x24 (size before relaxing)
 .stab          0x000000000000009c       0x18 /usr/lib/gcc/arm-none-eabi/9.2.1/../../../arm-none-eabi/lib/thumb/v7e-m+fp/hard/libnosys.a(read.o)
                                         0x24 (size before relaxing)

.stabstr        0x0000000000000000      0x183
 .stabstr       0x0000000000000000      0x183 /usr/lib/gcc/arm-none-eabi/9.2.1/../../../arm-none-eabi/lib/thumb/v7e-m+fp/hard/libnosys.a(close.o)

Cross Reference Table

Symbol                                            File
_Balloc                                           /usr/lib/gcc/arm-none-eabi/9.2.1/../../../arm-none-eabi/lib/thumb/v7e-m+fp/hard/libc.a(lib_a-mprec.o)
                                                  /usr/lib/gcc/arm-none-eabi/9.2.1/../../../arm-none-eabi/lib/thumb/v7e-m+fp/hard/libc.a(lib_a-dtoa.o)
_Bfree                                            /usr/lib/gcc/arm-none-eabi/9.2.1/../../../arm-none-eabi/lib/thumb/v7e-m+fp/hard/libc.a(lib_a-mprec.o)
                                                  /usr/lib/gcc/arm-none-eabi/9.2.1/../../../arm-none-eabi/lib/thumb/v7e-m+fp/hard/libc.a(lib_a-dtoa.o)
_PathLocale                                       /usr/lib/gcc/arm-none-eabi/9.2.1/../../../arm-none-eabi/lib/thumb/v7e-m+fp/hard/libc.a(lib_a-locale.o)
__adddf3                                          /usr/lib/gcc/arm-none-eabi/9.2.1/thumb/v7e-m+fp/hard/libgcc.a(_arm_addsubdf3.o)
__aeabi_cdcmpeq                                   /usr/lib/gcc/arm-none-eabi/9.2.1/thumb/v7e-m+fp/hard/libgcc.a(_arm_cmpdf2.o)
__aeabi_cdcmple                                   /usr/lib/gcc/arm-none-eabi/9.2.1/thumb/v7e-m+fp/hard/libgcc.a(_arm_cmpdf2.o)
__aeabi_cdrcmple                                  /usr/lib/gcc/arm-none-eabi/9.2.1/thumb/v7e-m+fp/hard/libgcc.a(_arm_cmpdf2.o)
__aeabi_d2iz                                      /usr/lib/gcc/arm-none-eabi/9.2.1/thumb/v7e-m+fp/hard/libgcc.a(_arm_fixdfsi.o)
                                                  /usr/lib/gcc/arm-none-eabi/9.2.1/../../../arm-none-eabi/lib/thumb/v7e-m+fp/hard/libc.a(lib_a-dtoa.o)
__aeabi_dadd                                      /usr/lib/gcc/arm-none-eabi/9.2.1/thumb/v7e-m+fp/hard/libgcc.a(_arm_addsubdf3.o)
                                                  /usr/lib/gcc/arm-none-eabi/9.2.1/../../../arm-none-eabi/lib/thumb/v7e-m+fp/hard/libc.a(lib_a-dtoa.o)
__aeabi_dcmpeq                                    /usr/lib/gcc/arm-none-eabi/9.2.1/thumb/v7e-m+fp/hard/libgcc.a(_arm_cmpdf2.o)
                                                  /usr/lib/gcc/arm-none-eabi/9.2.1/../../../arm-none-eabi/lib/thumb/v7e-m+fp/hard/libc.a(lib_a-dtoa.o)
                                                  /usr/lib/gcc/arm-none-eabi/9.2.1/../../../arm-none-eabi/lib/thumb/v7e-m+fp/hard/libc.a(lib_a-vfprintf.o)
__aeabi_dcmpge                                    /usr/lib/gcc/arm-none-eabi/9.2.1/thumb/v7e-m+fp/hard/libgcc.a(_arm_cmpdf2.o)
                                                  /usr/lib/gcc/arm-none-eabi/9.2.1/../../../arm-none-eabi/lib/thumb/v7e-m+fp/hard/libc.a(lib_a-dtoa.o)
__aeabi_dcmpgt                                    /usr/lib/gcc/arm-none-eabi/9.2.1/thumb/v7e-m+fp/hard/libgcc.a(_arm_cmpdf2.o)
                                                  /usr/lib/gcc/arm-none-eabi/9.2.1/../../../arm-none-eabi/lib/thumb/v7e-m+fp/hard/libc.a(lib_a-dtoa.o)
__aeabi_dcmple                                    /usr/lib/gcc/arm-none-eabi/9.2.1/thumb/v7e-m+fp/hard/libgcc.a(_arm_cmpdf2.o)
                                                  /usr/lib/gcc/arm-none-eabi/9.2.1/../../../arm-none-eabi/lib/thumb/v7e-m+fp/hard/libc.a(lib_a-vfprintf.o)
__aeabi_dcmplt                                    /usr/lib/gcc/arm-none-eabi/9.2.1/thumb/v7e-m+fp/hard/libgcc.a(_arm_cmpdf2.o)
                                                  /usr/lib/gcc/arm-none-eabi/9.2.1/../../../arm-none-eabi/lib/thumb/v7e-m+fp/hard/libc.a(lib_a-dtoa.o)
                                                  /usr/lib/gcc/arm-none-eabi/9.2.1/../../../arm-none-eabi/lib/thumb/v7e-m+fp/hard/libc.a(lib_a-vfprintf.o)
__aeabi_dcmpun                                    /usr/lib/gcc/arm-none-eabi/9.2.1/thumb/v7e-m+fp/hard/libgcc.a(_arm_unorddf2.o)
                                                  /usr/lib/gcc/arm-none-eabi/9.2.1/../../../arm-none-eabi/lib/thumb/v7e-m+fp/hard/libc.a(lib_a-vfprintf.o)
__aeabi_ddiv                                      /usr/lib/gcc/arm-none-eabi/9.2.1/thumb/v7e-m+fp/hard/libgcc.a(_arm_muldivdf3.o)
                                                  /usr/lib/gcc/arm-none-eabi/9.2.1/../../../arm-none-eabi/lib/thumb/v7e-m+fp/hard/libc.a(lib_a-mprec.o)
                                                  /usr/lib/gcc/arm-none-eabi/9.2.1/../../../arm-none-eabi/lib/thumb/v7e-m+fp/hard/libc.a(lib_a-dtoa.o)
__aeabi_dmul                                      /usr/lib/gcc/arm-none-eabi/9.2.1/thumb/v7e-m+fp/hard/libgcc.a(_arm_muldivdf3.o)
                                                  /usr/lib/gcc/arm-none-eabi/9.2.1/thumb/v7e-m+fp/hard/libgcc.a(_arm_muldf3.o)
                                                  /usr/lib/gcc/arm-none-eabi/9.2.1/../../../arm-none-eabi/lib/thumb/v7e-m+fp/hard/libc.a(lib_a-mprec.o)
                                                  /usr/lib/gcc/arm-none-eabi/9.2.1/../../../arm-none-eabi/lib/thumb/v7e-m+fp/hard/libc.a(lib_a-dtoa.o)
__aeabi_drsub                                     /usr/lib/gcc/arm-none-eabi/9.2.1/thumb/v7e-m+fp/hard/libgcc.a(_arm_addsubdf3.o)
__aeabi_dsub                                      /usr/lib/gcc/arm-none-eabi/9.2.1/thumb/v7e-m+fp/hard/libgcc.a(_arm_addsubdf3.o)
                                                  /usr/lib/gcc/arm-none-eabi/9.2.1/../../../arm-none-eabi/lib/thumb/v7e-m+fp/hard/libc.a(lib_a-dtoa.o)
__aeabi_f2d                                       /usr/lib/gcc/arm-none-eabi/9.2.1/thumb/v7e-m+fp/hard/libgcc.a(_arm_addsubdf3.o)
__aeabi_i2d                                       /usr/lib/gcc/arm-none-eabi/9.2.1/thumb/v7e-m+fp/hard/libgcc.a(_arm_addsubdf3.o)
                                                  /usr/lib/gcc/arm-none-eabi/9.2.1/../../../arm-none-eabi/lib/thumb/v7e-m+fp/hard/libc.a(lib_a-dtoa.o)
__aeabi_idiv0                                     /usr/lib/gcc/arm-none-eabi/9.2.1/thumb/v7e-m+fp/hard/libgcc.a(_dvmd_tls.o)
__aeabi_l2d                                       /usr/lib/gcc/arm-none-eabi/9.2.1/thumb/v7e-m+fp/hard/libgcc.a(_arm_addsubdf3.o)
__aeabi_ldiv0                                     /usr/lib/gcc/arm-none-eabi/9.2.1/thumb/v7e-m+fp/hard/libgcc.a(_dvmd_tls.o)
                                                  /usr/lib/gcc/arm-none-eabi/9.2.1/thumb/v7e-m+fp/hard/libgcc.a(_aeabi_uldivmod.o)
__aeabi_ui2d                                      /usr/lib/gcc/arm-none-eabi/9.2.1/thumb/v7e-m+fp/hard/libgcc.a(_arm_addsubdf3.o)
                                                  /usr/lib/gcc/arm-none-eabi/9.2.1/../../../arm-none-eabi/lib/thumb/v7e-m+fp/hard/libc.a(lib_a-dtoa.o)
__aeabi_ul2d                                      /usr/lib/gcc/arm-none-eabi/9.2.1/thumb/v7e-m+fp/hard/libgcc.a(_arm_addsubdf3.o)
__aeabi_uldivmod                                  /usr/lib/gcc/arm-none-eabi/9.2.1/thumb/v7e-m+fp/hard/libgcc.a(_aeabi_uldivmod.o)
                                                  /usr/lib/gcc/arm-none-eabi/9.2.1/../../../arm-none-eabi/lib/thumb/v7e-m+fp/hard/libc.a(lib_a-vfiprintf.o)
                                                  /usr/lib/gcc/arm-none-eabi/9.2.1/../../../arm-none-eabi/lib/thumb/v7e-m+fp/hard/libc.a(lib_a-vfprintf.o)
__any_on                                          /usr/lib/gcc/arm-none-eabi/9.2.1/../../../arm-none-eabi/lib/thumb/v7e-m+fp/hard/libc.a(lib_a-mprec.o)
__ascii_mbtowc                                    /usr/lib/gcc/arm-none-eabi/9.2.1/../../../arm-none-eabi/lib/thumb/v7e-m+fp/hard/libc.a(lib_a-mbtowc_r.o)
                                                  /usr/lib/gcc/arm-none-eabi/9.2.1/../../../arm-none-eabi/lib/thumb/v7e-m+fp/hard/libc.a(lib_a-locale.o)
__ascii_wctomb                                    /usr/lib/gcc/arm-none-eabi/9.2.1/../../../arm-none-eabi/lib/thumb/v7e-m+fp/hard/libc.a(lib_a-wctomb_r.o)
                                                  /usr/lib/gcc/arm-none-eabi/9.2.1/../../../arm-none-eabi/lib/thumb/v7e-m+fp/hard/libc.a(lib_a-locale.o)
__assert                                          /usr/lib/gcc/arm-none-eabi/9.2.1/../../../arm-none-eabi/lib/thumb/v7e-m+fp/hard/libc.a(lib_a-assert.o)
__assert_func                                     /usr/lib/gcc/arm-none-eabi/9.2.1/../../../arm-none-eabi/lib/thumb/v7e-m+fp/hard/libc.a(lib_a-assert.o)
                                                  /usr/lib/gcc/arm-none-eabi/9.2.1/../../../arm-none-eabi/lib/thumb/v7e-m+fp/hard/libc.a(lib_a-mprec.o)
                                                  /usr/lib/gcc/arm-none-eabi/9.2.1/../../../arm-none-eabi/lib/thumb/v7e-m+fp/hard/libc.a(lib_a-dtoa.o)
__b2d                                             /usr/lib/gcc/arm-none-eabi/9.2.1/../../../arm-none-eabi/lib/thumb/v7e-m+fp/hard/libc.a(lib_a-mprec.o)
__cmpdf2                                          /usr/lib/gcc/arm-none-eabi/9.2.1/thumb/v7e-m+fp/hard/libgcc.a(_arm_cmpdf2.o)
__copybits                                        /usr/lib/gcc/arm-none-eabi/9.2.1/../../../arm-none-eabi/lib/thumb/v7e-m+fp/hard/libc.a(lib_a-mprec.o)
__d2b                                             /usr/lib/gcc/arm-none-eabi/9.2.1/../../../arm-none-eabi/lib/thumb/v7e-m+fp/hard/libc.a(lib_a-mprec.o)
                                                  /usr/lib/gcc/arm-none-eabi/9.2.1/../../../arm-none-eabi/lib/thumb/v7e-m+fp/hard/libc.a(lib_a-dtoa.o)
__divdf3                                          /usr/lib/gcc/arm-none-eabi/9.2.1/thumb/v7e-m+fp/hard/libgcc.a(_arm_muldivdf3.o)
__eqdf2                                           /usr/lib/gcc/arm-none-eabi/9.2.1/thumb/v7e-m+fp/hard/libgcc.a(_arm_cmpdf2.o)
__extendsfdf2                                     /usr/lib/gcc/arm-none-eabi/9.2.1/thumb/v7e-m+fp/hard/libgcc.a(_arm_addsubdf3.o)
__fini_array_end                                  /home/juan/Documents/VIII_Semestre/Labo_Micros/Labos_con_Luisja/Laboratorio_Microcontroladores/Laboratorio_4/src/libopencm3-examples/libopencm3/lib/libopencm3_stm32f4.a(vector.o)
__fini_array_start                                /home/juan/Documents/VIII_Semestre/Labo_Micros/Labos_con_Luisja/Laboratorio_Microcontroladores/Laboratorio_4/src/libopencm3-examples/libopencm3/lib/libopencm3_stm32f4.a(vector.o)
__fixdfsi                                         /usr/lib/gcc/arm-none-eabi/9.2.1/thumb/v7e-m+fp/hard/libgcc.a(_arm_fixdfsi.o)
__floatdidf                                       /usr/lib/gcc/arm-none-eabi/9.2.1/thumb/v7e-m+fp/hard/libgcc.a(_arm_addsubdf3.o)
__floatsidf                                       /usr/lib/gcc/arm-none-eabi/9.2.1/thumb/v7e-m+fp/hard/libgcc.a(_arm_addsubdf3.o)
__floatundidf                                     /usr/lib/gcc/arm-none-eabi/9.2.1/thumb/v7e-m+fp/hard/libgcc.a(_arm_addsubdf3.o)
__floatunsidf                                     /usr/lib/gcc/arm-none-eabi/9.2.1/thumb/v7e-m+fp/hard/libgcc.a(_arm_addsubdf3.o)
__fp_lock_all                                     /usr/lib/gcc/arm-none-eabi/9.2.1/../../../arm-none-eabi/lib/thumb/v7e-m+fp/hard/libc.a(lib_a-findfp.o)
__fp_unlock_all                                   /usr/lib/gcc/arm-none-eabi/9.2.1/../../../arm-none-eabi/lib/thumb/v7e-m+fp/hard/libc.a(lib_a-findfp.o)
__fputwc                                          /usr/lib/gcc/arm-none-eabi/9.2.1/../../../arm-none-eabi/lib/thumb/v7e-m+fp/hard/libc.a(lib_a-fputwc.o)
__gedf2                                           /usr/lib/gcc/arm-none-eabi/9.2.1/thumb/v7e-m+fp/hard/libgcc.a(_arm_cmpdf2.o)
__global_locale                                   /usr/lib/gcc/arm-none-eabi/9.2.1/../../../arm-none-eabi/lib/thumb/v7e-m+fp/hard/libc.a(lib_a-locale.o)
                                                  /usr/lib/gcc/arm-none-eabi/9.2.1/../../../arm-none-eabi/lib/thumb/v7e-m+fp/hard/libc.a(lib_a-wctomb_r.o)
                                                  /usr/lib/gcc/arm-none-eabi/9.2.1/../../../arm-none-eabi/lib/thumb/v7e-m+fp/hard/libc.a(lib_a-wcrtomb.o)
                                                  /usr/lib/gcc/arm-none-eabi/9.2.1/../../../arm-none-eabi/lib/thumb/v7e-m+fp/hard/libc.a(lib_a-mbtowc_r.o)
                                                  /usr/lib/gcc/arm-none-eabi/9.2.1/../../../arm-none-eabi/lib/thumb/v7e-m+fp/hard/libc.a(lib_a-localeconv.o)
__gtdf2                                           /usr/lib/gcc/arm-none-eabi/9.2.1/thumb/v7e-m+fp/hard/libgcc.a(_arm_cmpdf2.o)
__hi0bits                                         /usr/lib/gcc/arm-none-eabi/9.2.1/../../../arm-none-eabi/lib/thumb/v7e-m+fp/hard/libc.a(lib_a-mprec.o)
                                                  /usr/lib/gcc/arm-none-eabi/9.2.1/../../../arm-none-eabi/lib/thumb/v7e-m+fp/hard/libc.a(lib_a-dtoa.o)
__i2b                                             /usr/lib/gcc/arm-none-eabi/9.2.1/../../../arm-none-eabi/lib/thumb/v7e-m+fp/hard/libc.a(lib_a-mprec.o)
                                                  /usr/lib/gcc/arm-none-eabi/9.2.1/../../../arm-none-eabi/lib/thumb/v7e-m+fp/hard/libc.a(lib_a-dtoa.o)
__init_array_end                                  /home/juan/Documents/VIII_Semestre/Labo_Micros/Labos_con_Luisja/Laboratorio_Microcontroladores/Laboratorio_4/src/libopencm3-examples/libopencm3/lib/libopencm3_stm32f4.a(vector.o)
__init_array_start                                /home/juan/Documents/VIII_Semestre/Labo_Micros/Labos_con_Luisja/Laboratorio_Microcontroladores/Laboratorio_4/src/libopencm3-examples/libopencm3/lib/libopencm3_stm32f4.a(vector.o)
__ledf2                                           /usr/lib/gcc/arm-none-eabi/9.2.1/thumb/v7e-m+fp/hard/libgcc.a(_arm_cmpdf2.o)
__lo0bits                                         /usr/lib/gcc/arm-none-eabi/9.2.1/../../../arm-none-eabi/lib/thumb/v7e-m+fp/hard/libc.a(lib_a-mprec.o)
__locale_mb_cur_max                               /usr/lib/gcc/arm-none-eabi/9.2.1/../../../arm-none-eabi/lib/thumb/v7e-m+fp/hard/libc.a(lib_a-locale.o)
                                                  /usr/lib/gcc/arm-none-eabi/9.2.1/../../../arm-none-eabi/lib/thumb/v7e-m+fp/hard/libc.a(lib_a-fputwc.o)
__localeconv_l                                    /usr/lib/gcc/arm-none-eabi/9.2.1/../../../arm-none-eabi/lib/thumb/v7e-m+fp/hard/libc.a(lib_a-localeconv.o)
__lshift                                          /usr/lib/gcc/arm-none-eabi/9.2.1/../../../arm-none-eabi/lib/thumb/v7e-m+fp/hard/libc.a(lib_a-mprec.o)
                                                  /usr/lib/gcc/arm-none-eabi/9.2.1/../../../arm-none-eabi/lib/thumb/v7e-m+fp/hard/libc.a(lib_a-dtoa.o)
__ltdf2                                           /usr/lib/gcc/arm-none-eabi/9.2.1/thumb/v7e-m+fp/hard/libgcc.a(_arm_cmpdf2.o)
__malloc_av_                                      /usr/lib/gcc/arm-none-eabi/9.2.1/../../../arm-none-eabi/lib/thumb/v7e-m+fp/hard/libc.a(lib_a-mallocr.o)
                                                  /usr/lib/gcc/arm-none-eabi/9.2.1/../../../arm-none-eabi/lib/thumb/v7e-m+fp/hard/libc.a(lib_a-reallocr.o)
                                                  /usr/lib/gcc/arm-none-eabi/9.2.1/../../../arm-none-eabi/lib/thumb/v7e-m+fp/hard/libc.a(lib_a-freer.o)
__malloc_current_mallinfo                         /usr/lib/gcc/arm-none-eabi/9.2.1/../../../arm-none-eabi/lib/thumb/v7e-m+fp/hard/libc.a(lib_a-mallocr.o)
                                                  /usr/lib/gcc/arm-none-eabi/9.2.1/../../../arm-none-eabi/lib/thumb/v7e-m+fp/hard/libc.a(lib_a-freer.o)
__malloc_lock                                     /usr/lib/gcc/arm-none-eabi/9.2.1/../../../arm-none-eabi/lib/thumb/v7e-m+fp/hard/libc.a(lib_a-mlock.o)
                                                  /usr/lib/gcc/arm-none-eabi/9.2.1/../../../arm-none-eabi/lib/thumb/v7e-m+fp/hard/libc.a(lib_a-reallocr.o)
                                                  /usr/lib/gcc/arm-none-eabi/9.2.1/../../../arm-none-eabi/lib/thumb/v7e-m+fp/hard/libc.a(lib_a-mallocr.o)
                                                  /usr/lib/gcc/arm-none-eabi/9.2.1/../../../arm-none-eabi/lib/thumb/v7e-m+fp/hard/libc.a(lib_a-freer.o)
__malloc_max_sbrked_mem                           /usr/lib/gcc/arm-none-eabi/9.2.1/../../../arm-none-eabi/lib/thumb/v7e-m+fp/hard/libc.a(lib_a-mallocr.o)
__malloc_max_total_mem                            /usr/lib/gcc/arm-none-eabi/9.2.1/../../../arm-none-eabi/lib/thumb/v7e-m+fp/hard/libc.a(lib_a-mallocr.o)
__malloc_sbrk_base                                /usr/lib/gcc/arm-none-eabi/9.2.1/../../../arm-none-eabi/lib/thumb/v7e-m+fp/hard/libc.a(lib_a-mallocr.o)
                                                  /usr/lib/gcc/arm-none-eabi/9.2.1/../../../arm-none-eabi/lib/thumb/v7e-m+fp/hard/libc.a(lib_a-freer.o)
__malloc_top_pad                                  /usr/lib/gcc/arm-none-eabi/9.2.1/../../../arm-none-eabi/lib/thumb/v7e-m+fp/hard/libc.a(lib_a-mallocr.o)
                                                  /usr/lib/gcc/arm-none-eabi/9.2.1/../../../arm-none-eabi/lib/thumb/v7e-m+fp/hard/libc.a(lib_a-freer.o)
__malloc_trim_threshold                           /usr/lib/gcc/arm-none-eabi/9.2.1/../../../arm-none-eabi/lib/thumb/v7e-m+fp/hard/libc.a(lib_a-mallocr.o)
                                                  /usr/lib/gcc/arm-none-eabi/9.2.1/../../../arm-none-eabi/lib/thumb/v7e-m+fp/hard/libc.a(lib_a-freer.o)
__malloc_unlock                                   /usr/lib/gcc/arm-none-eabi/9.2.1/../../../arm-none-eabi/lib/thumb/v7e-m+fp/hard/libc.a(lib_a-mlock.o)
                                                  /usr/lib/gcc/arm-none-eabi/9.2.1/../../../arm-none-eabi/lib/thumb/v7e-m+fp/hard/libc.a(lib_a-reallocr.o)
                                                  /usr/lib/gcc/arm-none-eabi/9.2.1/../../../arm-none-eabi/lib/thumb/v7e-m+fp/hard/libc.a(lib_a-mallocr.o)
                                                  /usr/lib/gcc/arm-none-eabi/9.2.1/../../../arm-none-eabi/lib/thumb/v7e-m+fp/hard/libc.a(lib_a-freer.o)
__mcmp                                            /usr/lib/gcc/arm-none-eabi/9.2.1/../../../arm-none-eabi/lib/thumb/v7e-m+fp/hard/libc.a(lib_a-mprec.o)
                                                  /usr/lib/gcc/arm-none-eabi/9.2.1/../../../arm-none-eabi/lib/thumb/v7e-m+fp/hard/libc.a(lib_a-dtoa.o)
__mdiff                                           /usr/lib/gcc/arm-none-eabi/9.2.1/../../../arm-none-eabi/lib/thumb/v7e-m+fp/hard/libc.a(lib_a-mprec.o)
                                                  /usr/lib/gcc/arm-none-eabi/9.2.1/../../../arm-none-eabi/lib/thumb/v7e-m+fp/hard/libc.a(lib_a-dtoa.o)
__mprec_bigtens                                   /usr/lib/gcc/arm-none-eabi/9.2.1/../../../arm-none-eabi/lib/thumb/v7e-m+fp/hard/libc.a(lib_a-mprec.o)
                                                  /usr/lib/gcc/arm-none-eabi/9.2.1/../../../arm-none-eabi/lib/thumb/v7e-m+fp/hard/libc.a(lib_a-dtoa.o)
__mprec_tens                                      /usr/lib/gcc/arm-none-eabi/9.2.1/../../../arm-none-eabi/lib/thumb/v7e-m+fp/hard/libc.a(lib_a-mprec.o)
                                                  /usr/lib/gcc/arm-none-eabi/9.2.1/../../../arm-none-eabi/lib/thumb/v7e-m+fp/hard/libc.a(lib_a-dtoa.o)
__mprec_tinytens                                  /usr/lib/gcc/arm-none-eabi/9.2.1/../../../arm-none-eabi/lib/thumb/v7e-m+fp/hard/libc.a(lib_a-mprec.o)
__muldf3                                          /usr/lib/gcc/arm-none-eabi/9.2.1/thumb/v7e-m+fp/hard/libgcc.a(_arm_muldivdf3.o)
                                                  /usr/lib/gcc/arm-none-eabi/9.2.1/thumb/v7e-m+fp/hard/libgcc.a(_arm_muldf3.o)
__multadd                                         /usr/lib/gcc/arm-none-eabi/9.2.1/../../../arm-none-eabi/lib/thumb/v7e-m+fp/hard/libc.a(lib_a-mprec.o)
                                                  /usr/lib/gcc/arm-none-eabi/9.2.1/../../../arm-none-eabi/lib/thumb/v7e-m+fp/hard/libc.a(lib_a-dtoa.o)
__multiply                                        /usr/lib/gcc/arm-none-eabi/9.2.1/../../../arm-none-eabi/lib/thumb/v7e-m+fp/hard/libc.a(lib_a-mprec.o)
                                                  /usr/lib/gcc/arm-none-eabi/9.2.1/../../../arm-none-eabi/lib/thumb/v7e-m+fp/hard/libc.a(lib_a-dtoa.o)
__nedf2                                           /usr/lib/gcc/arm-none-eabi/9.2.1/thumb/v7e-m+fp/hard/libgcc.a(_arm_cmpdf2.o)
__pow5mult                                        /usr/lib/gcc/arm-none-eabi/9.2.1/../../../arm-none-eabi/lib/thumb/v7e-m+fp/hard/libc.a(lib_a-mprec.o)
                                                  /usr/lib/gcc/arm-none-eabi/9.2.1/../../../arm-none-eabi/lib/thumb/v7e-m+fp/hard/libc.a(lib_a-dtoa.o)
__preinit_array_end                               /home/juan/Documents/VIII_Semestre/Labo_Micros/Labos_con_Luisja/Laboratorio_Microcontroladores/Laboratorio_4/src/libopencm3-examples/libopencm3/lib/libopencm3_stm32f4.a(vector.o)
__preinit_array_start                             /home/juan/Documents/VIII_Semestre/Labo_Micros/Labos_con_Luisja/Laboratorio_Microcontroladores/Laboratorio_4/src/libopencm3-examples/libopencm3/lib/libopencm3_stm32f4.a(vector.o)
__ratio                                           /usr/lib/gcc/arm-none-eabi/9.2.1/../../../arm-none-eabi/lib/thumb/v7e-m+fp/hard/libc.a(lib_a-mprec.o)
__s2b                                             /usr/lib/gcc/arm-none-eabi/9.2.1/../../../arm-none-eabi/lib/thumb/v7e-m+fp/hard/libc.a(lib_a-mprec.o)
__sclose                                          /usr/lib/gcc/arm-none-eabi/9.2.1/../../../arm-none-eabi/lib/thumb/v7e-m+fp/hard/libc.a(lib_a-stdio.o)
                                                  /usr/lib/gcc/arm-none-eabi/9.2.1/../../../arm-none-eabi/lib/thumb/v7e-m+fp/hard/libc.a(lib_a-findfp.o)
__seofread                                        /usr/lib/gcc/arm-none-eabi/9.2.1/../../../arm-none-eabi/lib/thumb/v7e-m+fp/hard/libc.a(lib_a-stdio.o)
__sflush_r                                        /usr/lib/gcc/arm-none-eabi/9.2.1/../../../arm-none-eabi/lib/thumb/v7e-m+fp/hard/libc.a(lib_a-fflush.o)
                                                  /usr/lib/gcc/arm-none-eabi/9.2.1/../../../arm-none-eabi/lib/thumb/v7e-m+fp/hard/libc.a(lib_a-fclose.o)
__sfmoreglue                                      /usr/lib/gcc/arm-none-eabi/9.2.1/../../../arm-none-eabi/lib/thumb/v7e-m+fp/hard/libc.a(lib_a-findfp.o)
__sfp                                             /usr/lib/gcc/arm-none-eabi/9.2.1/../../../arm-none-eabi/lib/thumb/v7e-m+fp/hard/libc.a(lib_a-findfp.o)
__sfp_lock_acquire                                /usr/lib/gcc/arm-none-eabi/9.2.1/../../../arm-none-eabi/lib/thumb/v7e-m+fp/hard/libc.a(lib_a-findfp.o)
                                                  /usr/lib/gcc/arm-none-eabi/9.2.1/../../../arm-none-eabi/lib/thumb/v7e-m+fp/hard/libc.a(lib_a-fclose.o)
__sfp_lock_release                                /usr/lib/gcc/arm-none-eabi/9.2.1/../../../arm-none-eabi/lib/thumb/v7e-m+fp/hard/libc.a(lib_a-findfp.o)
                                                  /usr/lib/gcc/arm-none-eabi/9.2.1/../../../arm-none-eabi/lib/thumb/v7e-m+fp/hard/libc.a(lib_a-fclose.o)
__sfvwrite_r                                      /usr/lib/gcc/arm-none-eabi/9.2.1/../../../arm-none-eabi/lib/thumb/v7e-m+fp/hard/libc.a(lib_a-fvwrite.o)
                                                  /usr/lib/gcc/arm-none-eabi/9.2.1/../../../arm-none-eabi/lib/thumb/v7e-m+fp/hard/libc.a(lib_a-vfiprintf.o)
                                                  /usr/lib/gcc/arm-none-eabi/9.2.1/../../../arm-none-eabi/lib/thumb/v7e-m+fp/hard/libc.a(lib_a-puts.o)
__sigtramp                                        /usr/lib/gcc/arm-none-eabi/9.2.1/../../../arm-none-eabi/lib/thumb/v7e-m+fp/hard/libc.a(lib_a-signal.o)
__sigtramp_r                                      /usr/lib/gcc/arm-none-eabi/9.2.1/../../../arm-none-eabi/lib/thumb/v7e-m+fp/hard/libc.a(lib_a-signal.o)
__sinit                                           /usr/lib/gcc/arm-none-eabi/9.2.1/../../../arm-none-eabi/lib/thumb/v7e-m+fp/hard/libc.a(lib_a-findfp.o)
                                                  /usr/lib/gcc/arm-none-eabi/9.2.1/../../../arm-none-eabi/lib/thumb/v7e-m+fp/hard/libc.a(lib_a-wbuf.o)
                                                  /usr/lib/gcc/arm-none-eabi/9.2.1/../../../arm-none-eabi/lib/thumb/v7e-m+fp/hard/libc.a(lib_a-fputwc.o)
                                                  /usr/lib/gcc/arm-none-eabi/9.2.1/../../../arm-none-eabi/lib/thumb/v7e-m+fp/hard/libc.a(lib_a-fclose.o)
                                                  /usr/lib/gcc/arm-none-eabi/9.2.1/../../../arm-none-eabi/lib/thumb/v7e-m+fp/hard/libc.a(lib_a-vfiprintf.o)
                                                  /usr/lib/gcc/arm-none-eabi/9.2.1/../../../arm-none-eabi/lib/thumb/v7e-m+fp/hard/libc.a(lib_a-fflush.o)
                                                  /usr/lib/gcc/arm-none-eabi/9.2.1/../../../arm-none-eabi/lib/thumb/v7e-m+fp/hard/libc.a(lib_a-wsetup.o)
                                                  /usr/lib/gcc/arm-none-eabi/9.2.1/../../../arm-none-eabi/lib/thumb/v7e-m+fp/hard/libc.a(lib_a-vfprintf.o)
                                                  /usr/lib/gcc/arm-none-eabi/9.2.1/../../../arm-none-eabi/lib/thumb/v7e-m+fp/hard/libc.a(lib_a-puts.o)
__sinit_lock_acquire                              /usr/lib/gcc/arm-none-eabi/9.2.1/../../../arm-none-eabi/lib/thumb/v7e-m+fp/hard/libc.a(lib_a-findfp.o)
__sinit_lock_release                              /usr/lib/gcc/arm-none-eabi/9.2.1/../../../arm-none-eabi/lib/thumb/v7e-m+fp/hard/libc.a(lib_a-findfp.o)
__smakebuf_r                                      /usr/lib/gcc/arm-none-eabi/9.2.1/../../../arm-none-eabi/lib/thumb/v7e-m+fp/hard/libc.a(lib_a-makebuf.o)
                                                  /usr/lib/gcc/arm-none-eabi/9.2.1/../../../arm-none-eabi/lib/thumb/v7e-m+fp/hard/libc.a(lib_a-wsetup.o)
__sprint_r                                        /usr/lib/gcc/arm-none-eabi/9.2.1/../../../arm-none-eabi/lib/thumb/v7e-m+fp/hard/libc.a(lib_a-vfiprintf.o)
                                                  /usr/lib/gcc/arm-none-eabi/9.2.1/../../../arm-none-eabi/lib/thumb/v7e-m+fp/hard/libc.a(lib_a-vfprintf.o)
__sread                                           /usr/lib/gcc/arm-none-eabi/9.2.1/../../../arm-none-eabi/lib/thumb/v7e-m+fp/hard/libc.a(lib_a-stdio.o)
                                                  /usr/lib/gcc/arm-none-eabi/9.2.1/../../../arm-none-eabi/lib/thumb/v7e-m+fp/hard/libc.a(lib_a-findfp.o)
__sseek                                           /usr/lib/gcc/arm-none-eabi/9.2.1/../../../arm-none-eabi/lib/thumb/v7e-m+fp/hard/libc.a(lib_a-stdio.o)
                                                  /usr/lib/gcc/arm-none-eabi/9.2.1/../../../arm-none-eabi/lib/thumb/v7e-m+fp/hard/libc.a(lib_a-findfp.o)
__subdf3                                          /usr/lib/gcc/arm-none-eabi/9.2.1/thumb/v7e-m+fp/hard/libgcc.a(_arm_addsubdf3.o)
__swbuf                                           /usr/lib/gcc/arm-none-eabi/9.2.1/../../../arm-none-eabi/lib/thumb/v7e-m+fp/hard/libc.a(lib_a-wbuf.o)
__swbuf_r                                         /usr/lib/gcc/arm-none-eabi/9.2.1/../../../arm-none-eabi/lib/thumb/v7e-m+fp/hard/libc.a(lib_a-wbuf.o)
                                                  /usr/lib/gcc/arm-none-eabi/9.2.1/../../../arm-none-eabi/lib/thumb/v7e-m+fp/hard/libc.a(lib_a-fputwc.o)
__swhatbuf_r                                      /usr/lib/gcc/arm-none-eabi/9.2.1/../../../arm-none-eabi/lib/thumb/v7e-m+fp/hard/libc.a(lib_a-makebuf.o)
__swrite                                          /usr/lib/gcc/arm-none-eabi/9.2.1/../../../arm-none-eabi/lib/thumb/v7e-m+fp/hard/libc.a(lib_a-stdio.o)
                                                  /usr/lib/gcc/arm-none-eabi/9.2.1/../../../arm-none-eabi/lib/thumb/v7e-m+fp/hard/libc.a(lib_a-findfp.o)
__swsetup_r                                       /usr/lib/gcc/arm-none-eabi/9.2.1/../../../arm-none-eabi/lib/thumb/v7e-m+fp/hard/libc.a(lib_a-wsetup.o)
                                                  /usr/lib/gcc/arm-none-eabi/9.2.1/../../../arm-none-eabi/lib/thumb/v7e-m+fp/hard/libc.a(lib_a-wbuf.o)
                                                  /usr/lib/gcc/arm-none-eabi/9.2.1/../../../arm-none-eabi/lib/thumb/v7e-m+fp/hard/libc.a(lib_a-vfiprintf.o)
                                                  /usr/lib/gcc/arm-none-eabi/9.2.1/../../../arm-none-eabi/lib/thumb/v7e-m+fp/hard/libc.a(lib_a-fvwrite.o)
                                                  /usr/lib/gcc/arm-none-eabi/9.2.1/../../../arm-none-eabi/lib/thumb/v7e-m+fp/hard/libc.a(lib_a-vfprintf.o)
__udivmoddi4                                      /usr/lib/gcc/arm-none-eabi/9.2.1/thumb/v7e-m+fp/hard/libgcc.a(_udivmoddi4.o)
                                                  /usr/lib/gcc/arm-none-eabi/9.2.1/thumb/v7e-m+fp/hard/libgcc.a(_aeabi_uldivmod.o)
__ulp                                             /usr/lib/gcc/arm-none-eabi/9.2.1/../../../arm-none-eabi/lib/thumb/v7e-m+fp/hard/libc.a(lib_a-mprec.o)
__unorddf2                                        /usr/lib/gcc/arm-none-eabi/9.2.1/thumb/v7e-m+fp/hard/libgcc.a(_arm_unorddf2.o)
_calloc_r                                         /usr/lib/gcc/arm-none-eabi/9.2.1/../../../arm-none-eabi/lib/thumb/v7e-m+fp/hard/libc.a(lib_a-callocr.o)
                                                  /usr/lib/gcc/arm-none-eabi/9.2.1/../../../arm-none-eabi/lib/thumb/v7e-m+fp/hard/libc.a(lib_a-mprec.o)
_cleanup                                          /usr/lib/gcc/arm-none-eabi/9.2.1/../../../arm-none-eabi/lib/thumb/v7e-m+fp/hard/libc.a(lib_a-findfp.o)
_cleanup_r                                        /usr/lib/gcc/arm-none-eabi/9.2.1/../../../arm-none-eabi/lib/thumb/v7e-m+fp/hard/libc.a(lib_a-findfp.o)
                                                  /usr/lib/gcc/arm-none-eabi/9.2.1/../../../arm-none-eabi/lib/thumb/v7e-m+fp/hard/libc.a(lib_a-makebuf.o)
_close                                            /usr/lib/gcc/arm-none-eabi/9.2.1/../../../arm-none-eabi/lib/thumb/v7e-m+fp/hard/libnosys.a(close.o)
                                                  /usr/lib/gcc/arm-none-eabi/9.2.1/../../../arm-none-eabi/lib/thumb/v7e-m+fp/hard/libc.a(lib_a-closer.o)
_close_r                                          /usr/lib/gcc/arm-none-eabi/9.2.1/../../../arm-none-eabi/lib/thumb/v7e-m+fp/hard/libc.a(lib_a-closer.o)
                                                  /usr/lib/gcc/arm-none-eabi/9.2.1/../../../arm-none-eabi/lib/thumb/v7e-m+fp/hard/libc.a(lib_a-stdio.o)
_ctype_                                           /usr/lib/gcc/arm-none-eabi/9.2.1/../../../arm-none-eabi/lib/thumb/v7e-m+fp/hard/libc.a(lib_a-ctype_.o)
                                                  /usr/lib/gcc/arm-none-eabi/9.2.1/../../../arm-none-eabi/lib/thumb/v7e-m+fp/hard/libc.a(lib_a-locale.o)
_data                                             /home/juan/Documents/VIII_Semestre/Labo_Micros/Labos_con_Luisja/Laboratorio_Microcontroladores/Laboratorio_4/src/libopencm3-examples/libopencm3/lib/libopencm3_stm32f4.a(vector.o)
_data_loadaddr                                    /home/juan/Documents/VIII_Semestre/Labo_Micros/Labos_con_Luisja/Laboratorio_Microcontroladores/Laboratorio_4/src/libopencm3-examples/libopencm3/lib/libopencm3_stm32f4.a(vector.o)
_dtoa_r                                           /usr/lib/gcc/arm-none-eabi/9.2.1/../../../arm-none-eabi/lib/thumb/v7e-m+fp/hard/libc.a(lib_a-dtoa.o)
                                                  /usr/lib/gcc/arm-none-eabi/9.2.1/../../../arm-none-eabi/lib/thumb/v7e-m+fp/hard/libc.a(lib_a-vfprintf.o)
_ebss                                             /home/juan/Documents/VIII_Semestre/Labo_Micros/Labos_con_Luisja/Laboratorio_Microcontroladores/Laboratorio_4/src/libopencm3-examples/libopencm3/lib/libopencm3_stm32f4.a(vector.o)
_edata                                            /home/juan/Documents/VIII_Semestre/Labo_Micros/Labos_con_Luisja/Laboratorio_Microcontroladores/Laboratorio_4/src/libopencm3-examples/libopencm3/lib/libopencm3_stm32f4.a(vector.o)
_exit                                             /usr/lib/gcc/arm-none-eabi/9.2.1/../../../arm-none-eabi/lib/thumb/v7e-m+fp/hard/libnosys.a(_exit.o)
                                                  /usr/lib/gcc/arm-none-eabi/9.2.1/../../../arm-none-eabi/lib/thumb/v7e-m+fp/hard/libc.a(lib_a-abort.o)
_fclose_r                                         /usr/lib/gcc/arm-none-eabi/9.2.1/../../../arm-none-eabi/lib/thumb/v7e-m+fp/hard/libc.a(lib_a-fclose.o)
                                                  /usr/lib/gcc/arm-none-eabi/9.2.1/../../../arm-none-eabi/lib/thumb/v7e-m+fp/hard/libc.a(lib_a-findfp.o)
_fflush_r                                         /usr/lib/gcc/arm-none-eabi/9.2.1/../../../arm-none-eabi/lib/thumb/v7e-m+fp/hard/libc.a(lib_a-fflush.o)
                                                  /usr/lib/gcc/arm-none-eabi/9.2.1/../../../arm-none-eabi/lib/thumb/v7e-m+fp/hard/libc.a(lib_a-wbuf.o)
                                                  /usr/lib/gcc/arm-none-eabi/9.2.1/../../../arm-none-eabi/lib/thumb/v7e-m+fp/hard/libc.a(lib_a-vfiprintf.o)
                                                  /usr/lib/gcc/arm-none-eabi/9.2.1/../../../arm-none-eabi/lib/thumb/v7e-m+fp/hard/libc.a(lib_a-fvwrite.o)
                                                  /usr/lib/gcc/arm-none-eabi/9.2.1/../../../arm-none-eabi/lib/thumb/v7e-m+fp/hard/libc.a(lib_a-vfprintf.o)
_fiprintf_r                                       /usr/lib/gcc/arm-none-eabi/9.2.1/../../../arm-none-eabi/lib/thumb/v7e-m+fp/hard/libc.a(lib_a-fiprintf.o)
_fputwc_r                                         /usr/lib/gcc/arm-none-eabi/9.2.1/../../../arm-none-eabi/lib/thumb/v7e-m+fp/hard/libc.a(lib_a-fputwc.o)
                                                  /usr/lib/gcc/arm-none-eabi/9.2.1/../../../arm-none-eabi/lib/thumb/v7e-m+fp/hard/libc.a(lib_a-vfiprintf.o)
_free_r                                           /usr/lib/gcc/arm-none-eabi/9.2.1/../../../arm-none-eabi/lib/thumb/v7e-m+fp/hard/libc.a(lib_a-freer.o)
                                                  /usr/lib/gcc/arm-none-eabi/9.2.1/../../../arm-none-eabi/lib/thumb/v7e-m+fp/hard/libc.a(lib_a-reent.o)
                                                  /usr/lib/gcc/arm-none-eabi/9.2.1/../../../arm-none-eabi/lib/thumb/v7e-m+fp/hard/libc.a(lib_a-fclose.o)
                                                  /usr/lib/gcc/arm-none-eabi/9.2.1/../../../arm-none-eabi/lib/thumb/v7e-m+fp/hard/libc.a(lib_a-reallocr.o)
                                                  /usr/lib/gcc/arm-none-eabi/9.2.1/../../../arm-none-eabi/lib/thumb/v7e-m+fp/hard/libc.a(lib_a-mallocr.o)
                                                  /usr/lib/gcc/arm-none-eabi/9.2.1/../../../arm-none-eabi/lib/thumb/v7e-m+fp/hard/libc.a(lib_a-fvwrite.o)
                                                  /usr/lib/gcc/arm-none-eabi/9.2.1/../../../arm-none-eabi/lib/thumb/v7e-m+fp/hard/libc.a(lib_a-fflush.o)
                                                  /usr/lib/gcc/arm-none-eabi/9.2.1/../../../arm-none-eabi/lib/thumb/v7e-m+fp/hard/libc.a(lib_a-wsetup.o)
_fstat                                            /usr/lib/gcc/arm-none-eabi/9.2.1/../../../arm-none-eabi/lib/thumb/v7e-m+fp/hard/libnosys.a(fstat.o)
                                                  /usr/lib/gcc/arm-none-eabi/9.2.1/../../../arm-none-eabi/lib/thumb/v7e-m+fp/hard/libc.a(lib_a-fstatr.o)
_fstat_r                                          /usr/lib/gcc/arm-none-eabi/9.2.1/../../../arm-none-eabi/lib/thumb/v7e-m+fp/hard/libc.a(lib_a-fstatr.o)
                                                  /usr/lib/gcc/arm-none-eabi/9.2.1/../../../arm-none-eabi/lib/thumb/v7e-m+fp/hard/libc.a(lib_a-makebuf.o)
_fwalk                                            /usr/lib/gcc/arm-none-eabi/9.2.1/../../../arm-none-eabi/lib/thumb/v7e-m+fp/hard/libc.a(lib_a-fwalk.o)
                                                  /usr/lib/gcc/arm-none-eabi/9.2.1/../../../arm-none-eabi/lib/thumb/v7e-m+fp/hard/libc.a(lib_a-findfp.o)
_fwalk_reent                                      /usr/lib/gcc/arm-none-eabi/9.2.1/../../../arm-none-eabi/lib/thumb/v7e-m+fp/hard/libc.a(lib_a-fwalk.o)
                                                  /usr/lib/gcc/arm-none-eabi/9.2.1/../../../arm-none-eabi/lib/thumb/v7e-m+fp/hard/libc.a(lib_a-findfp.o)
                                                  /usr/lib/gcc/arm-none-eabi/9.2.1/../../../arm-none-eabi/lib/thumb/v7e-m+fp/hard/libc.a(lib_a-fflush.o)
_getpid                                           /usr/lib/gcc/arm-none-eabi/9.2.1/../../../arm-none-eabi/lib/thumb/v7e-m+fp/hard/libnosys.a(getpid.o)
                                                  /usr/lib/gcc/arm-none-eabi/9.2.1/../../../arm-none-eabi/lib/thumb/v7e-m+fp/hard/libc.a(lib_a-signalr.o)
_getpid_r                                         /usr/lib/gcc/arm-none-eabi/9.2.1/../../../arm-none-eabi/lib/thumb/v7e-m+fp/hard/libc.a(lib_a-signalr.o)
                                                  /usr/lib/gcc/arm-none-eabi/9.2.1/../../../arm-none-eabi/lib/thumb/v7e-m+fp/hard/libc.a(lib_a-signal.o)
_global_impure_ptr                                /usr/lib/gcc/arm-none-eabi/9.2.1/../../../arm-none-eabi/lib/thumb/v7e-m+fp/hard/libc.a(lib_a-impure.o)
                                                  /usr/lib/gcc/arm-none-eabi/9.2.1/../../../arm-none-eabi/lib/thumb/v7e-m+fp/hard/libc.a(lib_a-findfp.o)
                                                  /usr/lib/gcc/arm-none-eabi/9.2.1/../../../arm-none-eabi/lib/thumb/v7e-m+fp/hard/libc.a(lib_a-fflush.o)
_impure_ptr                                       /usr/lib/gcc/arm-none-eabi/9.2.1/../../../arm-none-eabi/lib/thumb/v7e-m+fp/hard/libc.a(lib_a-impure.o)
                                                  /usr/lib/gcc/arm-none-eabi/9.2.1/../../../arm-none-eabi/lib/thumb/v7e-m+fp/hard/libc.a(lib_a-signal.o)
                                                  /usr/lib/gcc/arm-none-eabi/9.2.1/../../../arm-none-eabi/lib/thumb/v7e-m+fp/hard/libc.a(lib_a-wcrtomb.o)
                                                  /usr/lib/gcc/arm-none-eabi/9.2.1/../../../arm-none-eabi/lib/thumb/v7e-m+fp/hard/libc.a(lib_a-wbuf.o)
                                                  /usr/lib/gcc/arm-none-eabi/9.2.1/../../../arm-none-eabi/lib/thumb/v7e-m+fp/hard/libc.a(lib_a-reent.o)
                                                  /usr/lib/gcc/arm-none-eabi/9.2.1/../../../arm-none-eabi/lib/thumb/v7e-m+fp/hard/libc.a(lib_a-locale.o)
                                                  /usr/lib/gcc/arm-none-eabi/9.2.1/../../../arm-none-eabi/lib/thumb/v7e-m+fp/hard/libc.a(lib_a-fputwc.o)
                                                  /usr/lib/gcc/arm-none-eabi/9.2.1/../../../arm-none-eabi/lib/thumb/v7e-m+fp/hard/libc.a(lib_a-fiprintf.o)
                                                  /usr/lib/gcc/arm-none-eabi/9.2.1/../../../arm-none-eabi/lib/thumb/v7e-m+fp/hard/libc.a(lib_a-fclose.o)
                                                  /usr/lib/gcc/arm-none-eabi/9.2.1/../../../arm-none-eabi/lib/thumb/v7e-m+fp/hard/libc.a(lib_a-assert.o)
                                                  /usr/lib/gcc/arm-none-eabi/9.2.1/../../../arm-none-eabi/lib/thumb/v7e-m+fp/hard/libc.a(lib_a-vfiprintf.o)
                                                  /usr/lib/gcc/arm-none-eabi/9.2.1/../../../arm-none-eabi/lib/thumb/v7e-m+fp/hard/libc.a(lib_a-findfp.o)
                                                  /usr/lib/gcc/arm-none-eabi/9.2.1/../../../arm-none-eabi/lib/thumb/v7e-m+fp/hard/libc.a(lib_a-fflush.o)
                                                  /usr/lib/gcc/arm-none-eabi/9.2.1/../../../arm-none-eabi/lib/thumb/v7e-m+fp/hard/libc.a(lib_a-wsetup.o)
                                                  /usr/lib/gcc/arm-none-eabi/9.2.1/../../../arm-none-eabi/lib/thumb/v7e-m+fp/hard/libc.a(lib_a-vfprintf.o)
                                                  /usr/lib/gcc/arm-none-eabi/9.2.1/../../../arm-none-eabi/lib/thumb/v7e-m+fp/hard/libc.a(lib_a-puts.o)
                                                  /usr/lib/gcc/arm-none-eabi/9.2.1/../../../arm-none-eabi/lib/thumb/v7e-m+fp/hard/libc.a(lib_a-printf.o)
_init_signal                                      /usr/lib/gcc/arm-none-eabi/9.2.1/../../../arm-none-eabi/lib/thumb/v7e-m+fp/hard/libc.a(lib_a-signal.o)
_init_signal_r                                    /usr/lib/gcc/arm-none-eabi/9.2.1/../../../arm-none-eabi/lib/thumb/v7e-m+fp/hard/libc.a(lib_a-signal.o)
_isatty                                           /usr/lib/gcc/arm-none-eabi/9.2.1/../../../arm-none-eabi/lib/thumb/v7e-m+fp/hard/libnosys.a(isatty.o)
                                                  /usr/lib/gcc/arm-none-eabi/9.2.1/../../../arm-none-eabi/lib/thumb/v7e-m+fp/hard/libc.a(lib_a-isattyr.o)
_isatty_r                                         /usr/lib/gcc/arm-none-eabi/9.2.1/../../../arm-none-eabi/lib/thumb/v7e-m+fp/hard/libc.a(lib_a-isattyr.o)
                                                  /usr/lib/gcc/arm-none-eabi/9.2.1/../../../arm-none-eabi/lib/thumb/v7e-m+fp/hard/libc.a(lib_a-makebuf.o)
_kill                                             /usr/lib/gcc/arm-none-eabi/9.2.1/../../../arm-none-eabi/lib/thumb/v7e-m+fp/hard/libnosys.a(kill.o)
                                                  /usr/lib/gcc/arm-none-eabi/9.2.1/../../../arm-none-eabi/lib/thumb/v7e-m+fp/hard/libc.a(lib_a-signalr.o)
_kill_r                                           /usr/lib/gcc/arm-none-eabi/9.2.1/../../../arm-none-eabi/lib/thumb/v7e-m+fp/hard/libc.a(lib_a-signalr.o)
                                                  /usr/lib/gcc/arm-none-eabi/9.2.1/../../../arm-none-eabi/lib/thumb/v7e-m+fp/hard/libc.a(lib_a-signal.o)
_localeconv_r                                     /usr/lib/gcc/arm-none-eabi/9.2.1/../../../arm-none-eabi/lib/thumb/v7e-m+fp/hard/libc.a(lib_a-localeconv.o)
                                                  /usr/lib/gcc/arm-none-eabi/9.2.1/../../../arm-none-eabi/lib/thumb/v7e-m+fp/hard/libc.a(lib_a-vfprintf.o)
_lseek                                            /usr/lib/gcc/arm-none-eabi/9.2.1/../../../arm-none-eabi/lib/thumb/v7e-m+fp/hard/libnosys.a(lseek.o)
                                                  /usr/lib/gcc/arm-none-eabi/9.2.1/../../../arm-none-eabi/lib/thumb/v7e-m+fp/hard/libc.a(lib_a-lseekr.o)
_lseek_r                                          /usr/lib/gcc/arm-none-eabi/9.2.1/../../../arm-none-eabi/lib/thumb/v7e-m+fp/hard/libc.a(lib_a-lseekr.o)
                                                  /usr/lib/gcc/arm-none-eabi/9.2.1/../../../arm-none-eabi/lib/thumb/v7e-m+fp/hard/libc.a(lib_a-stdio.o)
_malloc_r                                         /usr/lib/gcc/arm-none-eabi/9.2.1/../../../arm-none-eabi/lib/thumb/v7e-m+fp/hard/libc.a(lib_a-mallocr.o)
                                                  /usr/lib/gcc/arm-none-eabi/9.2.1/../../../arm-none-eabi/lib/thumb/v7e-m+fp/hard/libc.a(lib_a-signal.o)
                                                  /usr/lib/gcc/arm-none-eabi/9.2.1/../../../arm-none-eabi/lib/thumb/v7e-m+fp/hard/libc.a(lib_a-callocr.o)
                                                  /usr/lib/gcc/arm-none-eabi/9.2.1/../../../arm-none-eabi/lib/thumb/v7e-m+fp/hard/libc.a(lib_a-reallocr.o)
                                                  /usr/lib/gcc/arm-none-eabi/9.2.1/../../../arm-none-eabi/lib/thumb/v7e-m+fp/hard/libc.a(lib_a-makebuf.o)
                                                  /usr/lib/gcc/arm-none-eabi/9.2.1/../../../arm-none-eabi/lib/thumb/v7e-m+fp/hard/libc.a(lib_a-fvwrite.o)
                                                  /usr/lib/gcc/arm-none-eabi/9.2.1/../../../arm-none-eabi/lib/thumb/v7e-m+fp/hard/libc.a(lib_a-findfp.o)
_malloc_trim_r                                    /usr/lib/gcc/arm-none-eabi/9.2.1/../../../arm-none-eabi/lib/thumb/v7e-m+fp/hard/libc.a(lib_a-freer.o)
_mbtowc_r                                         /usr/lib/gcc/arm-none-eabi/9.2.1/../../../arm-none-eabi/lib/thumb/v7e-m+fp/hard/libc.a(lib_a-mbtowc_r.o)
_mprec_log10                                      /usr/lib/gcc/arm-none-eabi/9.2.1/../../../arm-none-eabi/lib/thumb/v7e-m+fp/hard/libc.a(lib_a-mprec.o)
_printf_r                                         /usr/lib/gcc/arm-none-eabi/9.2.1/../../../arm-none-eabi/lib/thumb/v7e-m+fp/hard/libc.a(lib_a-printf.o)
_puts_r                                           /usr/lib/gcc/arm-none-eabi/9.2.1/../../../arm-none-eabi/lib/thumb/v7e-m+fp/hard/libc.a(lib_a-puts.o)
_raise_r                                          /usr/lib/gcc/arm-none-eabi/9.2.1/../../../arm-none-eabi/lib/thumb/v7e-m+fp/hard/libc.a(lib_a-signal.o)
_read                                             /usr/lib/gcc/arm-none-eabi/9.2.1/../../../arm-none-eabi/lib/thumb/v7e-m+fp/hard/libnosys.a(read.o)
                                                  /usr/lib/gcc/arm-none-eabi/9.2.1/../../../arm-none-eabi/lib/thumb/v7e-m+fp/hard/libc.a(lib_a-readr.o)
_read_r                                           /usr/lib/gcc/arm-none-eabi/9.2.1/../../../arm-none-eabi/lib/thumb/v7e-m+fp/hard/libc.a(lib_a-readr.o)
                                                  /usr/lib/gcc/arm-none-eabi/9.2.1/../../../arm-none-eabi/lib/thumb/v7e-m+fp/hard/libc.a(lib_a-stdio.o)
_realloc_r                                        /usr/lib/gcc/arm-none-eabi/9.2.1/../../../arm-none-eabi/lib/thumb/v7e-m+fp/hard/libc.a(lib_a-reallocr.o)
                                                  /usr/lib/gcc/arm-none-eabi/9.2.1/../../../arm-none-eabi/lib/thumb/v7e-m+fp/hard/libc.a(lib_a-fvwrite.o)
_reclaim_reent                                    /usr/lib/gcc/arm-none-eabi/9.2.1/../../../arm-none-eabi/lib/thumb/v7e-m+fp/hard/libc.a(lib_a-reent.o)
_sbrk                                             /usr/lib/gcc/arm-none-eabi/9.2.1/../../../arm-none-eabi/lib/thumb/v7e-m+fp/hard/libnosys.a(sbrk.o)
                                                  /usr/lib/gcc/arm-none-eabi/9.2.1/../../../arm-none-eabi/lib/thumb/v7e-m+fp/hard/libc.a(lib_a-sbrkr.o)
_sbrk_r                                           /usr/lib/gcc/arm-none-eabi/9.2.1/../../../arm-none-eabi/lib/thumb/v7e-m+fp/hard/libc.a(lib_a-sbrkr.o)
                                                  /usr/lib/gcc/arm-none-eabi/9.2.1/../../../arm-none-eabi/lib/thumb/v7e-m+fp/hard/libc.a(lib_a-mallocr.o)
                                                  /usr/lib/gcc/arm-none-eabi/9.2.1/../../../arm-none-eabi/lib/thumb/v7e-m+fp/hard/libc.a(lib_a-freer.o)
_setlocale_r                                      /usr/lib/gcc/arm-none-eabi/9.2.1/../../../arm-none-eabi/lib/thumb/v7e-m+fp/hard/libc.a(lib_a-locale.o)
_signal_r                                         /usr/lib/gcc/arm-none-eabi/9.2.1/../../../arm-none-eabi/lib/thumb/v7e-m+fp/hard/libc.a(lib_a-signal.o)
_stack                                            /home/juan/Documents/VIII_Semestre/Labo_Micros/Labos_con_Luisja/Laboratorio_Microcontroladores/Laboratorio_4/src/libopencm3-examples/libopencm3/lib/libopencm3_stm32f4.a(vector.o)
_vfiprintf_r                                      /usr/lib/gcc/arm-none-eabi/9.2.1/../../../arm-none-eabi/lib/thumb/v7e-m+fp/hard/libc.a(lib_a-vfiprintf.o)
                                                  /usr/lib/gcc/arm-none-eabi/9.2.1/../../../arm-none-eabi/lib/thumb/v7e-m+fp/hard/libc.a(lib_a-fiprintf.o)
_vfprintf_r                                       /usr/lib/gcc/arm-none-eabi/9.2.1/../../../arm-none-eabi/lib/thumb/v7e-m+fp/hard/libc.a(lib_a-vfprintf.o)
                                                  /usr/lib/gcc/arm-none-eabi/9.2.1/../../../arm-none-eabi/lib/thumb/v7e-m+fp/hard/libc.a(lib_a-printf.o)
_wcrtomb_r                                        /usr/lib/gcc/arm-none-eabi/9.2.1/../../../arm-none-eabi/lib/thumb/v7e-m+fp/hard/libc.a(lib_a-wcrtomb.o)
                                                  /usr/lib/gcc/arm-none-eabi/9.2.1/../../../arm-none-eabi/lib/thumb/v7e-m+fp/hard/libc.a(lib_a-fputwc.o)
_wctomb_r                                         /usr/lib/gcc/arm-none-eabi/9.2.1/../../../arm-none-eabi/lib/thumb/v7e-m+fp/hard/libc.a(lib_a-wctomb_r.o)
_write                                            labo4.o
                                                  /usr/lib/gcc/arm-none-eabi/9.2.1/../../../arm-none-eabi/lib/thumb/v7e-m+fp/hard/libc.a(lib_a-writer.o)
_write_r                                          /usr/lib/gcc/arm-none-eabi/9.2.1/../../../arm-none-eabi/lib/thumb/v7e-m+fp/hard/libc.a(lib_a-writer.o)
                                                  /usr/lib/gcc/arm-none-eabi/9.2.1/../../../arm-none-eabi/lib/thumb/v7e-m+fp/hard/libc.a(lib_a-stdio.o)
abort                                             /usr/lib/gcc/arm-none-eabi/9.2.1/../../../arm-none-eabi/lib/thumb/v7e-m+fp/hard/libc.a(lib_a-abort.o)
                                                  /usr/lib/gcc/arm-none-eabi/9.2.1/../../../arm-none-eabi/lib/thumb/v7e-m+fp/hard/libc.a(lib_a-assert.o)
adc_isr                                           /home/juan/Documents/VIII_Semestre/Labo_Micros/Labos_con_Luisja/Laboratorio_Microcontroladores/Laboratorio_4/src/libopencm3-examples/libopencm3/lib/libopencm3_stm32f4.a(vector.o)
blocking_handler                                  /home/juan/Documents/VIII_Semestre/Labo_Micros/Labos_con_Luisja/Laboratorio_Microcontroladores/Laboratorio_4/src/libopencm3-examples/libopencm3/lib/libopencm3_stm32f4.a(vector.o)
bus_fault_handler                                 /home/juan/Documents/VIII_Semestre/Labo_Micros/Labos_con_Luisja/Laboratorio_Microcontroladores/Laboratorio_4/src/libopencm3-examples/libopencm3/lib/libopencm3_stm32f4.a(vector.o)
can1_rx0_isr                                      /home/juan/Documents/VIII_Semestre/Labo_Micros/Labos_con_Luisja/Laboratorio_Microcontroladores/Laboratorio_4/src/libopencm3-examples/libopencm3/lib/libopencm3_stm32f4.a(vector.o)
can1_rx1_isr                                      /home/juan/Documents/VIII_Semestre/Labo_Micros/Labos_con_Luisja/Laboratorio_Microcontroladores/Laboratorio_4/src/libopencm3-examples/libopencm3/lib/libopencm3_stm32f4.a(vector.o)
can1_sce_isr                                      /home/juan/Documents/VIII_Semestre/Labo_Micros/Labos_con_Luisja/Laboratorio_Microcontroladores/Laboratorio_4/src/libopencm3-examples/libopencm3/lib/libopencm3_stm32f4.a(vector.o)
can1_tx_isr                                       /home/juan/Documents/VIII_Semestre/Labo_Micros/Labos_con_Luisja/Laboratorio_Microcontroladores/Laboratorio_4/src/libopencm3-examples/libopencm3/lib/libopencm3_stm32f4.a(vector.o)
can2_rx0_isr                                      /home/juan/Documents/VIII_Semestre/Labo_Micros/Labos_con_Luisja/Laboratorio_Microcontroladores/Laboratorio_4/src/libopencm3-examples/libopencm3/lib/libopencm3_stm32f4.a(vector.o)
can2_rx1_isr                                      /home/juan/Documents/VIII_Semestre/Labo_Micros/Labos_con_Luisja/Laboratorio_Microcontroladores/Laboratorio_4/src/libopencm3-examples/libopencm3/lib/libopencm3_stm32f4.a(vector.o)
can2_sce_isr                                      /home/juan/Documents/VIII_Semestre/Labo_Micros/Labos_con_Luisja/Laboratorio_Microcontroladores/Laboratorio_4/src/libopencm3-examples/libopencm3/lib/libopencm3_stm32f4.a(vector.o)
can2_tx_isr                                       /home/juan/Documents/VIII_Semestre/Labo_Micros/Labos_con_Luisja/Laboratorio_Microcontroladores/Laboratorio_4/src/libopencm3-examples/libopencm3/lib/libopencm3_stm32f4.a(vector.o)
cleanup_glue                                      /usr/lib/gcc/arm-none-eabi/9.2.1/../../../arm-none-eabi/lib/thumb/v7e-m+fp/hard/libc.a(lib_a-reent.o)
clock_setup                                       clock.o
                                                  labo4.o
cryp_isr                                          /home/juan/Documents/VIII_Semestre/Labo_Micros/Labos_con_Luisja/Laboratorio_Microcontroladores/Laboratorio_4/src/libopencm3-examples/libopencm3/lib/libopencm3_stm32f4.a(vector.o)
cur_frame                                         lcd.o
dcmi_isr                                          /home/juan/Documents/VIII_Semestre/Labo_Micros/Labos_con_Luisja/Laboratorio_Microcontroladores/Laboratorio_4/src/libopencm3-examples/libopencm3/lib/libopencm3_stm32f4.a(vector.o)
debug_monitor_handler                             /home/juan/Documents/VIII_Semestre/Labo_Micros/Labos_con_Luisja/Laboratorio_Microcontroladores/Laboratorio_4/src/libopencm3-examples/libopencm3/lib/libopencm3_stm32f4.a(vector.o)
display_frame                                     lcd.o
dma1_stream0_isr                                  /home/juan/Documents/VIII_Semestre/Labo_Micros/Labos_con_Luisja/Laboratorio_Microcontroladores/Laboratorio_4/src/libopencm3-examples/libopencm3/lib/libopencm3_stm32f4.a(vector.o)
dma1_stream1_isr                                  /home/juan/Documents/VIII_Semestre/Labo_Micros/Labos_con_Luisja/Laboratorio_Microcontroladores/Laboratorio_4/src/libopencm3-examples/libopencm3/lib/libopencm3_stm32f4.a(vector.o)
dma1_stream2_isr                                  /home/juan/Documents/VIII_Semestre/Labo_Micros/Labos_con_Luisja/Laboratorio_Microcontroladores/Laboratorio_4/src/libopencm3-examples/libopencm3/lib/libopencm3_stm32f4.a(vector.o)
dma1_stream3_isr                                  /home/juan/Documents/VIII_Semestre/Labo_Micros/Labos_con_Luisja/Laboratorio_Microcontroladores/Laboratorio_4/src/libopencm3-examples/libopencm3/lib/libopencm3_stm32f4.a(vector.o)
dma1_stream4_isr                                  /home/juan/Documents/VIII_Semestre/Labo_Micros/Labos_con_Luisja/Laboratorio_Microcontroladores/Laboratorio_4/src/libopencm3-examples/libopencm3/lib/libopencm3_stm32f4.a(vector.o)
dma1_stream5_isr                                  /home/juan/Documents/VIII_Semestre/Labo_Micros/Labos_con_Luisja/Laboratorio_Microcontroladores/Laboratorio_4/src/libopencm3-examples/libopencm3/lib/libopencm3_stm32f4.a(vector.o)
dma1_stream6_isr                                  /home/juan/Documents/VIII_Semestre/Labo_Micros/Labos_con_Luisja/Laboratorio_Microcontroladores/Laboratorio_4/src/libopencm3-examples/libopencm3/lib/libopencm3_stm32f4.a(vector.o)
dma1_stream7_isr                                  /home/juan/Documents/VIII_Semestre/Labo_Micros/Labos_con_Luisja/Laboratorio_Microcontroladores/Laboratorio_4/src/libopencm3-examples/libopencm3/lib/libopencm3_stm32f4.a(vector.o)
dma2_stream0_isr                                  /home/juan/Documents/VIII_Semestre/Labo_Micros/Labos_con_Luisja/Laboratorio_Microcontroladores/Laboratorio_4/src/libopencm3-examples/libopencm3/lib/libopencm3_stm32f4.a(vector.o)
dma2_stream1_isr                                  /home/juan/Documents/VIII_Semestre/Labo_Micros/Labos_con_Luisja/Laboratorio_Microcontroladores/Laboratorio_4/src/libopencm3-examples/libopencm3/lib/libopencm3_stm32f4.a(vector.o)
dma2_stream2_isr                                  /home/juan/Documents/VIII_Semestre/Labo_Micros/Labos_con_Luisja/Laboratorio_Microcontroladores/Laboratorio_4/src/libopencm3-examples/libopencm3/lib/libopencm3_stm32f4.a(vector.o)
dma2_stream3_isr                                  /home/juan/Documents/VIII_Semestre/Labo_Micros/Labos_con_Luisja/Laboratorio_Microcontroladores/Laboratorio_4/src/libopencm3-examples/libopencm3/lib/libopencm3_stm32f4.a(vector.o)
dma2_stream4_isr                                  /home/juan/Documents/VIII_Semestre/Labo_Micros/Labos_con_Luisja/Laboratorio_Microcontroladores/Laboratorio_4/src/libopencm3-examples/libopencm3/lib/libopencm3_stm32f4.a(vector.o)
dma2_stream5_isr                                  /home/juan/Documents/VIII_Semestre/Labo_Micros/Labos_con_Luisja/Laboratorio_Microcontroladores/Laboratorio_4/src/libopencm3-examples/libopencm3/lib/libopencm3_stm32f4.a(vector.o)
dma2_stream6_isr                                  /home/juan/Documents/VIII_Semestre/Labo_Micros/Labos_con_Luisja/Laboratorio_Microcontroladores/Laboratorio_4/src/libopencm3-examples/libopencm3/lib/libopencm3_stm32f4.a(vector.o)
dma2_stream7_isr                                  /home/juan/Documents/VIII_Semestre/Labo_Micros/Labos_con_Luisja/Laboratorio_Microcontroladores/Laboratorio_4/src/libopencm3-examples/libopencm3/lib/libopencm3_stm32f4.a(vector.o)
dma2d_isr                                         /home/juan/Documents/VIII_Semestre/Labo_Micros/Labos_con_Luisja/Laboratorio_Microcontroladores/Laboratorio_4/src/libopencm3-examples/libopencm3/lib/libopencm3_stm32f4.a(vector.o)
end                                               /usr/lib/gcc/arm-none-eabi/9.2.1/../../../arm-none-eabi/lib/thumb/v7e-m+fp/hard/libnosys.a(sbrk.o)
errno                                             /usr/lib/gcc/arm-none-eabi/9.2.1/../../../arm-none-eabi/lib/thumb/v7e-m+fp/hard/libc.a(lib_a-reent.o)
                                                  /usr/lib/gcc/arm-none-eabi/9.2.1/../../../arm-none-eabi/lib/thumb/v7e-m+fp/hard/libnosys.a(read.o)
                                                  /usr/lib/gcc/arm-none-eabi/9.2.1/../../../arm-none-eabi/lib/thumb/v7e-m+fp/hard/libnosys.a(lseek.o)
                                                  /usr/lib/gcc/arm-none-eabi/9.2.1/../../../arm-none-eabi/lib/thumb/v7e-m+fp/hard/libnosys.a(kill.o)
                                                  /usr/lib/gcc/arm-none-eabi/9.2.1/../../../arm-none-eabi/lib/thumb/v7e-m+fp/hard/libnosys.a(isatty.o)
                                                  /usr/lib/gcc/arm-none-eabi/9.2.1/../../../arm-none-eabi/lib/thumb/v7e-m+fp/hard/libnosys.a(getpid.o)
                                                  /usr/lib/gcc/arm-none-eabi/9.2.1/../../../arm-none-eabi/lib/thumb/v7e-m+fp/hard/libnosys.a(fstat.o)
                                                  /usr/lib/gcc/arm-none-eabi/9.2.1/../../../arm-none-eabi/lib/thumb/v7e-m+fp/hard/libnosys.a(close.o)
                                                  /usr/lib/gcc/arm-none-eabi/9.2.1/../../../arm-none-eabi/lib/thumb/v7e-m+fp/hard/libc.a(lib_a-signalr.o)
                                                  /usr/lib/gcc/arm-none-eabi/9.2.1/../../../arm-none-eabi/lib/thumb/v7e-m+fp/hard/libc.a(lib_a-readr.o)
                                                  /usr/lib/gcc/arm-none-eabi/9.2.1/../../../arm-none-eabi/lib/thumb/v7e-m+fp/hard/libc.a(lib_a-lseekr.o)
                                                  /usr/lib/gcc/arm-none-eabi/9.2.1/../../../arm-none-eabi/lib/thumb/v7e-m+fp/hard/libc.a(lib_a-isattyr.o)
                                                  /usr/lib/gcc/arm-none-eabi/9.2.1/../../../arm-none-eabi/lib/thumb/v7e-m+fp/hard/libc.a(lib_a-fstatr.o)
                                                  /usr/lib/gcc/arm-none-eabi/9.2.1/../../../arm-none-eabi/lib/thumb/v7e-m+fp/hard/libc.a(lib_a-closer.o)
                                                  /usr/lib/gcc/arm-none-eabi/9.2.1/../../../arm-none-eabi/lib/thumb/v7e-m+fp/hard/libc.a(lib_a-writer.o)
                                                  /usr/lib/gcc/arm-none-eabi/9.2.1/../../../arm-none-eabi/lib/thumb/v7e-m+fp/hard/libc.a(lib_a-sbrkr.o)
eth_isr                                           /home/juan/Documents/VIII_Semestre/Labo_Micros/Labos_con_Luisja/Laboratorio_Microcontroladores/Laboratorio_4/src/libopencm3-examples/libopencm3/lib/libopencm3_stm32f4.a(vector.o)
eth_wkup_isr                                      /home/juan/Documents/VIII_Semestre/Labo_Micros/Labos_con_Luisja/Laboratorio_Microcontroladores/Laboratorio_4/src/libopencm3-examples/libopencm3/lib/libopencm3_stm32f4.a(vector.o)
exti0_isr                                         /home/juan/Documents/VIII_Semestre/Labo_Micros/Labos_con_Luisja/Laboratorio_Microcontroladores/Laboratorio_4/src/libopencm3-examples/libopencm3/lib/libopencm3_stm32f4.a(vector.o)
exti15_10_isr                                     /home/juan/Documents/VIII_Semestre/Labo_Micros/Labos_con_Luisja/Laboratorio_Microcontroladores/Laboratorio_4/src/libopencm3-examples/libopencm3/lib/libopencm3_stm32f4.a(vector.o)
exti1_isr                                         /home/juan/Documents/VIII_Semestre/Labo_Micros/Labos_con_Luisja/Laboratorio_Microcontroladores/Laboratorio_4/src/libopencm3-examples/libopencm3/lib/libopencm3_stm32f4.a(vector.o)
exti2_isr                                         /home/juan/Documents/VIII_Semestre/Labo_Micros/Labos_con_Luisja/Laboratorio_Microcontroladores/Laboratorio_4/src/libopencm3-examples/libopencm3/lib/libopencm3_stm32f4.a(vector.o)
exti3_isr                                         /home/juan/Documents/VIII_Semestre/Labo_Micros/Labos_con_Luisja/Laboratorio_Microcontroladores/Laboratorio_4/src/libopencm3-examples/libopencm3/lib/libopencm3_stm32f4.a(vector.o)
exti4_isr                                         /home/juan/Documents/VIII_Semestre/Labo_Micros/Labos_con_Luisja/Laboratorio_Microcontroladores/Laboratorio_4/src/libopencm3-examples/libopencm3/lib/libopencm3_stm32f4.a(vector.o)
exti9_5_isr                                       /home/juan/Documents/VIII_Semestre/Labo_Micros/Labos_con_Luisja/Laboratorio_Microcontroladores/Laboratorio_4/src/libopencm3-examples/libopencm3/lib/libopencm3_stm32f4.a(vector.o)
fclose                                            /usr/lib/gcc/arm-none-eabi/9.2.1/../../../arm-none-eabi/lib/thumb/v7e-m+fp/hard/libc.a(lib_a-fclose.o)
fflush                                            /usr/lib/gcc/arm-none-eabi/9.2.1/../../../arm-none-eabi/lib/thumb/v7e-m+fp/hard/libc.a(lib_a-fflush.o)
fiprintf                                          /usr/lib/gcc/arm-none-eabi/9.2.1/../../../arm-none-eabi/lib/thumb/v7e-m+fp/hard/libc.a(lib_a-fiprintf.o)
                                                  /usr/lib/gcc/arm-none-eabi/9.2.1/../../../arm-none-eabi/lib/thumb/v7e-m+fp/hard/libc.a(lib_a-assert.o)
flash_dcache_disable                              /home/juan/Documents/VIII_Semestre/Labo_Micros/Labos_con_Luisja/Laboratorio_Microcontroladores/Laboratorio_4/src/libopencm3-examples/libopencm3/lib/libopencm3_stm32f4.a(flash_common_idcache.o)
                                                  /home/juan/Documents/VIII_Semestre/Labo_Micros/Labos_con_Luisja/Laboratorio_Microcontroladores/Laboratorio_4/src/libopencm3-examples/libopencm3/lib/libopencm3_stm32f4.a(rcc.o)
flash_dcache_enable                               /home/juan/Documents/VIII_Semestre/Labo_Micros/Labos_con_Luisja/Laboratorio_Microcontroladores/Laboratorio_4/src/libopencm3-examples/libopencm3/lib/libopencm3_stm32f4.a(flash_common_idcache.o)
                                                  /home/juan/Documents/VIII_Semestre/Labo_Micros/Labos_con_Luisja/Laboratorio_Microcontroladores/Laboratorio_4/src/libopencm3-examples/libopencm3/lib/libopencm3_stm32f4.a(rcc.o)
flash_dcache_reset                                /home/juan/Documents/VIII_Semestre/Labo_Micros/Labos_con_Luisja/Laboratorio_Microcontroladores/Laboratorio_4/src/libopencm3-examples/libopencm3/lib/libopencm3_stm32f4.a(flash_common_idcache.o)
flash_icache_disable                              /home/juan/Documents/VIII_Semestre/Labo_Micros/Labos_con_Luisja/Laboratorio_Microcontroladores/Laboratorio_4/src/libopencm3-examples/libopencm3/lib/libopencm3_stm32f4.a(flash_common_idcache.o)
                                                  /home/juan/Documents/VIII_Semestre/Labo_Micros/Labos_con_Luisja/Laboratorio_Microcontroladores/Laboratorio_4/src/libopencm3-examples/libopencm3/lib/libopencm3_stm32f4.a(rcc.o)
flash_icache_enable                               /home/juan/Documents/VIII_Semestre/Labo_Micros/Labos_con_Luisja/Laboratorio_Microcontroladores/Laboratorio_4/src/libopencm3-examples/libopencm3/lib/libopencm3_stm32f4.a(flash_common_idcache.o)
                                                  /home/juan/Documents/VIII_Semestre/Labo_Micros/Labos_con_Luisja/Laboratorio_Microcontroladores/Laboratorio_4/src/libopencm3-examples/libopencm3/lib/libopencm3_stm32f4.a(rcc.o)
flash_icache_reset                                /home/juan/Documents/VIII_Semestre/Labo_Micros/Labos_con_Luisja/Laboratorio_Microcontroladores/Laboratorio_4/src/libopencm3-examples/libopencm3/lib/libopencm3_stm32f4.a(flash_common_idcache.o)
flash_isr                                         /home/juan/Documents/VIII_Semestre/Labo_Micros/Labos_con_Luisja/Laboratorio_Microcontroladores/Laboratorio_4/src/libopencm3-examples/libopencm3/lib/libopencm3_stm32f4.a(vector.o)
flash_prefetch_disable                            /home/juan/Documents/VIII_Semestre/Labo_Micros/Labos_con_Luisja/Laboratorio_Microcontroladores/Laboratorio_4/src/libopencm3-examples/libopencm3/lib/libopencm3_stm32f4.a(flash_common_all.o)
flash_prefetch_enable                             /home/juan/Documents/VIII_Semestre/Labo_Micros/Labos_con_Luisja/Laboratorio_Microcontroladores/Laboratorio_4/src/libopencm3-examples/libopencm3/lib/libopencm3_stm32f4.a(flash_common_all.o)
flash_set_ws                                      /home/juan/Documents/VIII_Semestre/Labo_Micros/Labos_con_Luisja/Laboratorio_Microcontroladores/Laboratorio_4/src/libopencm3-examples/libopencm3/lib/libopencm3_stm32f4.a(flash_common_all.o)
                                                  /home/juan/Documents/VIII_Semestre/Labo_Micros/Labos_con_Luisja/Laboratorio_Microcontroladores/Laboratorio_4/src/libopencm3-examples/libopencm3/lib/libopencm3_stm32f4.a(rcc.o)
flash_unlock_option_bytes                         /home/juan/Documents/VIII_Semestre/Labo_Micros/Labos_con_Luisja/Laboratorio_Microcontroladores/Laboratorio_4/src/libopencm3-examples/libopencm3/lib/libopencm3_stm32f4.a(flash_common_all.o)
fpu_isr                                           /home/juan/Documents/VIII_Semestre/Labo_Micros/Labos_con_Luisja/Laboratorio_Microcontroladores/Laboratorio_4/src/libopencm3-examples/libopencm3/lib/libopencm3_stm32f4.a(vector.o)
fputwc                                            /usr/lib/gcc/arm-none-eabi/9.2.1/../../../arm-none-eabi/lib/thumb/v7e-m+fp/hard/libc.a(lib_a-fputwc.o)
fsmc_isr                                          /home/juan/Documents/VIII_Semestre/Labo_Micros/Labos_con_Luisja/Laboratorio_Microcontroladores/Laboratorio_4/src/libopencm3-examples/libopencm3/lib/libopencm3_stm32f4.a(vector.o)
gpio_clear                                        /home/juan/Documents/VIII_Semestre/Labo_Micros/Labos_con_Luisja/Laboratorio_Microcontroladores/Laboratorio_4/src/libopencm3-examples/libopencm3/lib/libopencm3_stm32f4.a(gpio_common_all.o)
                                                  lcd.o
gpio_get                                          /home/juan/Documents/VIII_Semestre/Labo_Micros/Labos_con_Luisja/Laboratorio_Microcontroladores/Laboratorio_4/src/libopencm3-examples/libopencm3/lib/libopencm3_stm32f4.a(gpio_common_all.o)
gpio_mode_setup                                   /home/juan/Documents/VIII_Semestre/Labo_Micros/Labos_con_Luisja/Laboratorio_Microcontroladores/Laboratorio_4/src/libopencm3-examples/libopencm3/lib/libopencm3_stm32f4.a(gpio_common_f0234.o)
                                                  labo4.o
                                                  lcd.o
                                                  sdram.o
gpio_port_config_lock                             /home/juan/Documents/VIII_Semestre/Labo_Micros/Labos_con_Luisja/Laboratorio_Microcontroladores/Laboratorio_4/src/libopencm3-examples/libopencm3/lib/libopencm3_stm32f4.a(gpio_common_all.o)
gpio_port_read                                    /home/juan/Documents/VIII_Semestre/Labo_Micros/Labos_con_Luisja/Laboratorio_Microcontroladores/Laboratorio_4/src/libopencm3-examples/libopencm3/lib/libopencm3_stm32f4.a(gpio_common_all.o)
gpio_port_write                                   /home/juan/Documents/VIII_Semestre/Labo_Micros/Labos_con_Luisja/Laboratorio_Microcontroladores/Laboratorio_4/src/libopencm3-examples/libopencm3/lib/libopencm3_stm32f4.a(gpio_common_all.o)
gpio_set                                          /home/juan/Documents/VIII_Semestre/Labo_Micros/Labos_con_Luisja/Laboratorio_Microcontroladores/Laboratorio_4/src/libopencm3-examples/libopencm3/lib/libopencm3_stm32f4.a(gpio_common_all.o)
                                                  lcd.o
gpio_set_af                                       /home/juan/Documents/VIII_Semestre/Labo_Micros/Labos_con_Luisja/Laboratorio_Microcontroladores/Laboratorio_4/src/libopencm3-examples/libopencm3/lib/libopencm3_stm32f4.a(gpio_common_f0234.o)
                                                  labo4.o
                                                  lcd.o
                                                  sdram.o
gpio_set_output_options                           /home/juan/Documents/VIII_Semestre/Labo_Micros/Labos_con_Luisja/Laboratorio_Microcontroladores/Laboratorio_4/src/libopencm3-examples/libopencm3/lib/libopencm3_stm32f4.a(gpio_common_f0234.o)
                                                  sdram.o
gpio_toggle                                       /home/juan/Documents/VIII_Semestre/Labo_Micros/Labos_con_Luisja/Laboratorio_Microcontroladores/Laboratorio_4/src/libopencm3-examples/libopencm3/lib/libopencm3_stm32f4.a(gpio_common_all.o)
                                                  labo4.o
hard_fault_handler                                /home/juan/Documents/VIII_Semestre/Labo_Micros/Labos_con_Luisja/Laboratorio_Microcontroladores/Laboratorio_4/src/libopencm3-examples/libopencm3/lib/libopencm3_stm32f4.a(vector.o)
hash_rng_isr                                      /home/juan/Documents/VIII_Semestre/Labo_Micros/Labos_con_Luisja/Laboratorio_Microcontroladores/Laboratorio_4/src/libopencm3-examples/libopencm3/lib/libopencm3_stm32f4.a(vector.o)
i2c1_er_isr                                       /home/juan/Documents/VIII_Semestre/Labo_Micros/Labos_con_Luisja/Laboratorio_Microcontroladores/Laboratorio_4/src/libopencm3-examples/libopencm3/lib/libopencm3_stm32f4.a(vector.o)
i2c1_ev_isr                                       /home/juan/Documents/VIII_Semestre/Labo_Micros/Labos_con_Luisja/Laboratorio_Microcontroladores/Laboratorio_4/src/libopencm3-examples/libopencm3/lib/libopencm3_stm32f4.a(vector.o)
i2c2_er_isr                                       /home/juan/Documents/VIII_Semestre/Labo_Micros/Labos_con_Luisja/Laboratorio_Microcontroladores/Laboratorio_4/src/libopencm3-examples/libopencm3/lib/libopencm3_stm32f4.a(vector.o)
i2c2_ev_isr                                       /home/juan/Documents/VIII_Semestre/Labo_Micros/Labos_con_Luisja/Laboratorio_Microcontroladores/Laboratorio_4/src/libopencm3-examples/libopencm3/lib/libopencm3_stm32f4.a(vector.o)
i2c3_er_isr                                       /home/juan/Documents/VIII_Semestre/Labo_Micros/Labos_con_Luisja/Laboratorio_Microcontroladores/Laboratorio_4/src/libopencm3-examples/libopencm3/lib/libopencm3_stm32f4.a(vector.o)
i2c3_ev_isr                                       /home/juan/Documents/VIII_Semestre/Labo_Micros/Labos_con_Luisja/Laboratorio_Microcontroladores/Laboratorio_4/src/libopencm3-examples/libopencm3/lib/libopencm3_stm32f4.a(vector.o)
initialization                                    lcd.o
lcd_colors                                        labo4.o
lcd_draw_pixel                                    lcd.o
                                                  labo4.o
lcd_init                                          lcd.o
                                                  labo4.o
lcd_show_frame                                    lcd.o
                                                  labo4.o
lcd_tft_err_isr                                   /home/juan/Documents/VIII_Semestre/Labo_Micros/Labos_con_Luisja/Laboratorio_Microcontroladores/Laboratorio_4/src/libopencm3-examples/libopencm3/lib/libopencm3_stm32f4.a(vector.o)
lcd_tft_isr                                       /home/juan/Documents/VIII_Semestre/Labo_Micros/Labos_con_Luisja/Laboratorio_Microcontroladores/Laboratorio_4/src/libopencm3-examples/libopencm3/lib/libopencm3_stm32f4.a(vector.o)
localeconv                                        /usr/lib/gcc/arm-none-eabi/9.2.1/../../../arm-none-eabi/lib/thumb/v7e-m+fp/hard/libc.a(lib_a-localeconv.o)
main                                              labo4.o
                                                  /home/juan/Documents/VIII_Semestre/Labo_Micros/Labos_con_Luisja/Laboratorio_Microcontroladores/Laboratorio_4/src/libopencm3-examples/libopencm3/lib/libopencm3_stm32f4.a(vector.o)
mandel                                            labo4.o
mem_manage_handler                                /home/juan/Documents/VIII_Semestre/Labo_Micros/Labos_con_Luisja/Laboratorio_Microcontroladores/Laboratorio_4/src/libopencm3-examples/libopencm3/lib/libopencm3_stm32f4.a(vector.o)
memchr                                            /usr/lib/gcc/arm-none-eabi/9.2.1/../../../arm-none-eabi/lib/thumb/v7e-m+fp/hard/libc.a(lib_a-memchr.o)
                                                  /usr/lib/gcc/arm-none-eabi/9.2.1/../../../arm-none-eabi/lib/thumb/v7e-m+fp/hard/libc.a(lib_a-vfiprintf.o)
                                                  /usr/lib/gcc/arm-none-eabi/9.2.1/../../../arm-none-eabi/lib/thumb/v7e-m+fp/hard/libc.a(lib_a-fvwrite.o)
                                                  /usr/lib/gcc/arm-none-eabi/9.2.1/../../../arm-none-eabi/lib/thumb/v7e-m+fp/hard/libc.a(lib_a-vfprintf.o)
memcpy                                            /usr/lib/gcc/arm-none-eabi/9.2.1/../../../arm-none-eabi/lib/thumb/v7e-m+fp/hard/libc.a(lib_a-memcpy.o)
                                                  /usr/lib/gcc/arm-none-eabi/9.2.1/../../../arm-none-eabi/lib/thumb/v7e-m+fp/hard/libc.a(lib_a-mprec.o)
                                                  /usr/lib/gcc/arm-none-eabi/9.2.1/../../../arm-none-eabi/lib/thumb/v7e-m+fp/hard/libc.a(lib_a-fvwrite.o)
                                                  /usr/lib/gcc/arm-none-eabi/9.2.1/../../../arm-none-eabi/lib/thumb/v7e-m+fp/hard/libc.a(lib_a-dtoa.o)
memmove                                           /usr/lib/gcc/arm-none-eabi/9.2.1/../../../arm-none-eabi/lib/thumb/v7e-m+fp/hard/libc.a(lib_a-memmove.o)
                                                  /usr/lib/gcc/arm-none-eabi/9.2.1/../../../arm-none-eabi/lib/thumb/v7e-m+fp/hard/libc.a(lib_a-reallocr.o)
                                                  /usr/lib/gcc/arm-none-eabi/9.2.1/../../../arm-none-eabi/lib/thumb/v7e-m+fp/hard/libc.a(lib_a-fvwrite.o)
memset                                            /usr/lib/gcc/arm-none-eabi/9.2.1/../../../arm-none-eabi/lib/thumb/v7e-m+fp/hard/libc.a(lib_a-memset.o)
                                                  /usr/lib/gcc/arm-none-eabi/9.2.1/../../../arm-none-eabi/lib/thumb/v7e-m+fp/hard/libc.a(lib_a-callocr.o)
                                                  /usr/lib/gcc/arm-none-eabi/9.2.1/../../../arm-none-eabi/lib/thumb/v7e-m+fp/hard/libc.a(lib_a-findfp.o)
msleep                                            clock.o
                                                  lcd.o
                                                  sdram.o
mtime                                             clock.o
nmi_handler                                       /home/juan/Documents/VIII_Semestre/Labo_Micros/Labos_con_Luisja/Laboratorio_Microcontroladores/Laboratorio_4/src/libopencm3-examples/libopencm3/lib/libopencm3_stm32f4.a(vector.o)
null_handler                                      /home/juan/Documents/VIII_Semestre/Labo_Micros/Labos_con_Luisja/Laboratorio_Microcontroladores/Laboratorio_4/src/libopencm3-examples/libopencm3/lib/libopencm3_stm32f4.a(vector.o)
nvic_wwdg_isr                                     /home/juan/Documents/VIII_Semestre/Labo_Micros/Labos_con_Luisja/Laboratorio_Microcontroladores/Laboratorio_4/src/libopencm3-examples/libopencm3/lib/libopencm3_stm32f4.a(vector.o)
otg_fs_isr                                        /home/juan/Documents/VIII_Semestre/Labo_Micros/Labos_con_Luisja/Laboratorio_Microcontroladores/Laboratorio_4/src/libopencm3-examples/libopencm3/lib/libopencm3_stm32f4.a(vector.o)
otg_hs_ep1_in_isr                                 /home/juan/Documents/VIII_Semestre/Labo_Micros/Labos_con_Luisja/Laboratorio_Microcontroladores/Laboratorio_4/src/libopencm3-examples/libopencm3/lib/libopencm3_stm32f4.a(vector.o)
otg_hs_ep1_out_isr                                /home/juan/Documents/VIII_Semestre/Labo_Micros/Labos_con_Luisja/Laboratorio_Microcontroladores/Laboratorio_4/src/libopencm3-examples/libopencm3/lib/libopencm3_stm32f4.a(vector.o)
otg_hs_isr                                        /home/juan/Documents/VIII_Semestre/Labo_Micros/Labos_con_Luisja/Laboratorio_Microcontroladores/Laboratorio_4/src/libopencm3-examples/libopencm3/lib/libopencm3_stm32f4.a(vector.o)
otg_hs_wkup_isr                                   /home/juan/Documents/VIII_Semestre/Labo_Micros/Labos_con_Luisja/Laboratorio_Microcontroladores/Laboratorio_4/src/libopencm3-examples/libopencm3/lib/libopencm3_stm32f4.a(vector.o)
pend_sv_handler                                   /home/juan/Documents/VIII_Semestre/Labo_Micros/Labos_con_Luisja/Laboratorio_Microcontroladores/Laboratorio_4/src/libopencm3-examples/libopencm3/lib/libopencm3_stm32f4.a(vector.o)
printf                                            /usr/lib/gcc/arm-none-eabi/9.2.1/../../../arm-none-eabi/lib/thumb/v7e-m+fp/hard/libc.a(lib_a-printf.o)
                                                  lcd.o
puts                                              /usr/lib/gcc/arm-none-eabi/9.2.1/../../../arm-none-eabi/lib/thumb/v7e-m+fp/hard/libc.a(lib_a-puts.o)
                                                  labo4.o
pvd_isr                                           /home/juan/Documents/VIII_Semestre/Labo_Micros/Labos_con_Luisja/Laboratorio_Microcontroladores/Laboratorio_4/src/libopencm3-examples/libopencm3/lib/libopencm3_stm32f4.a(vector.o)
pwr_set_vos_scale                                 /home/juan/Documents/VIII_Semestre/Labo_Micros/Labos_con_Luisja/Laboratorio_Microcontroladores/Laboratorio_4/src/libopencm3-examples/libopencm3/lib/libopencm3_stm32f4.a(pwr.o)
                                                  /home/juan/Documents/VIII_Semestre/Labo_Micros/Labos_con_Luisja/Laboratorio_Microcontroladores/Laboratorio_4/src/libopencm3-examples/libopencm3/lib/libopencm3_stm32f4.a(rcc.o)
raise                                             /usr/lib/gcc/arm-none-eabi/9.2.1/../../../arm-none-eabi/lib/thumb/v7e-m+fp/hard/libc.a(lib_a-signal.o)
                                                  /usr/lib/gcc/arm-none-eabi/9.2.1/../../../arm-none-eabi/lib/thumb/v7e-m+fp/hard/libc.a(lib_a-abort.o)
rcc_ahb_frequency                                 /home/juan/Documents/VIII_Semestre/Labo_Micros/Labos_con_Luisja/Laboratorio_Microcontroladores/Laboratorio_4/src/libopencm3-examples/libopencm3/lib/libopencm3_stm32f4.a(rcc.o)
                                                  clock.o
rcc_apb1_frequency                                /home/juan/Documents/VIII_Semestre/Labo_Micros/Labos_con_Luisja/Laboratorio_Microcontroladores/Laboratorio_4/src/libopencm3-examples/libopencm3/lib/libopencm3_stm32f4.a(rcc.o)
                                                  /home/juan/Documents/VIII_Semestre/Labo_Micros/Labos_con_Luisja/Laboratorio_Microcontroladores/Laboratorio_4/src/libopencm3-examples/libopencm3/lib/libopencm3_stm32f4.a(usart_common_all.o)
rcc_apb2_frequency                                /home/juan/Documents/VIII_Semestre/Labo_Micros/Labos_con_Luisja/Laboratorio_Microcontroladores/Laboratorio_4/src/libopencm3-examples/libopencm3/lib/libopencm3_stm32f4.a(rcc.o)
                                                  /home/juan/Documents/VIII_Semestre/Labo_Micros/Labos_con_Luisja/Laboratorio_Microcontroladores/Laboratorio_4/src/libopencm3-examples/libopencm3/lib/libopencm3_stm32f4.a(usart_common_all.o)
rcc_clock_setup_hse_3v3                           /home/juan/Documents/VIII_Semestre/Labo_Micros/Labos_con_Luisja/Laboratorio_Microcontroladores/Laboratorio_4/src/libopencm3-examples/libopencm3/lib/libopencm3_stm32f4.a(rcc.o)
rcc_clock_setup_pll                               /home/juan/Documents/VIII_Semestre/Labo_Micros/Labos_con_Luisja/Laboratorio_Microcontroladores/Laboratorio_4/src/libopencm3-examples/libopencm3/lib/libopencm3_stm32f4.a(rcc.o)
                                                  clock.o
rcc_css_disable                                   /home/juan/Documents/VIII_Semestre/Labo_Micros/Labos_con_Luisja/Laboratorio_Microcontroladores/Laboratorio_4/src/libopencm3-examples/libopencm3/lib/libopencm3_stm32f4.a(rcc.o)
rcc_css_enable                                    /home/juan/Documents/VIII_Semestre/Labo_Micros/Labos_con_Luisja/Laboratorio_Microcontroladores/Laboratorio_4/src/libopencm3-examples/libopencm3/lib/libopencm3_stm32f4.a(rcc.o)
rcc_css_int_clear                                 /home/juan/Documents/VIII_Semestre/Labo_Micros/Labos_con_Luisja/Laboratorio_Microcontroladores/Laboratorio_4/src/libopencm3-examples/libopencm3/lib/libopencm3_stm32f4.a(rcc.o)
rcc_css_int_flag                                  /home/juan/Documents/VIII_Semestre/Labo_Micros/Labos_con_Luisja/Laboratorio_Microcontroladores/Laboratorio_4/src/libopencm3-examples/libopencm3/lib/libopencm3_stm32f4.a(rcc.o)
rcc_get_div_from_hpre                             /home/juan/Documents/VIII_Semestre/Labo_Micros/Labos_con_Luisja/Laboratorio_Microcontroladores/Laboratorio_4/src/libopencm3-examples/libopencm3/lib/libopencm3_stm32f4.a(rcc_common_all.o)
rcc_get_i2c_clk_freq                              /home/juan/Documents/VIII_Semestre/Labo_Micros/Labos_con_Luisja/Laboratorio_Microcontroladores/Laboratorio_4/src/libopencm3-examples/libopencm3/lib/libopencm3_stm32f4.a(rcc.o)
rcc_get_spi_clk_freq                              /home/juan/Documents/VIII_Semestre/Labo_Micros/Labos_con_Luisja/Laboratorio_Microcontroladores/Laboratorio_4/src/libopencm3-examples/libopencm3/lib/libopencm3_stm32f4.a(rcc.o)
rcc_get_timer_clk_freq                            /home/juan/Documents/VIII_Semestre/Labo_Micros/Labos_con_Luisja/Laboratorio_Microcontroladores/Laboratorio_4/src/libopencm3-examples/libopencm3/lib/libopencm3_stm32f4.a(rcc.o)
rcc_get_usart_clk_freq                            /home/juan/Documents/VIII_Semestre/Labo_Micros/Labos_con_Luisja/Laboratorio_Microcontroladores/Laboratorio_4/src/libopencm3-examples/libopencm3/lib/libopencm3_stm32f4.a(rcc.o)
rcc_hse_12mhz_3v3                                 /home/juan/Documents/VIII_Semestre/Labo_Micros/Labos_con_Luisja/Laboratorio_Microcontroladores/Laboratorio_4/src/libopencm3-examples/libopencm3/lib/libopencm3_stm32f4.a(rcc.o)
rcc_hse_16mhz_3v3                                 /home/juan/Documents/VIII_Semestre/Labo_Micros/Labos_con_Luisja/Laboratorio_Microcontroladores/Laboratorio_4/src/libopencm3-examples/libopencm3/lib/libopencm3_stm32f4.a(rcc.o)
rcc_hse_25mhz_3v3                                 /home/juan/Documents/VIII_Semestre/Labo_Micros/Labos_con_Luisja/Laboratorio_Microcontroladores/Laboratorio_4/src/libopencm3-examples/libopencm3/lib/libopencm3_stm32f4.a(rcc.o)
rcc_hse_8mhz_3v3                                  /home/juan/Documents/VIII_Semestre/Labo_Micros/Labos_con_Luisja/Laboratorio_Microcontroladores/Laboratorio_4/src/libopencm3-examples/libopencm3/lib/libopencm3_stm32f4.a(rcc.o)
                                                  clock.o
rcc_hsi_configs                                   /home/juan/Documents/VIII_Semestre/Labo_Micros/Labos_con_Luisja/Laboratorio_Microcontroladores/Laboratorio_4/src/libopencm3-examples/libopencm3/lib/libopencm3_stm32f4.a(rcc.o)
rcc_is_osc_ready                                  /home/juan/Documents/VIII_Semestre/Labo_Micros/Labos_con_Luisja/Laboratorio_Microcontroladores/Laboratorio_4/src/libopencm3-examples/libopencm3/lib/libopencm3_stm32f4.a(rcc.o)
rcc_isr                                           /home/juan/Documents/VIII_Semestre/Labo_Micros/Labos_con_Luisja/Laboratorio_Microcontroladores/Laboratorio_4/src/libopencm3-examples/libopencm3/lib/libopencm3_stm32f4.a(vector.o)
rcc_osc_bypass_disable                            /home/juan/Documents/VIII_Semestre/Labo_Micros/Labos_con_Luisja/Laboratorio_Microcontroladores/Laboratorio_4/src/libopencm3-examples/libopencm3/lib/libopencm3_stm32f4.a(rcc_common_all.o)
rcc_osc_bypass_enable                             /home/juan/Documents/VIII_Semestre/Labo_Micros/Labos_con_Luisja/Laboratorio_Microcontroladores/Laboratorio_4/src/libopencm3-examples/libopencm3/lib/libopencm3_stm32f4.a(rcc_common_all.o)
rcc_osc_off                                       /home/juan/Documents/VIII_Semestre/Labo_Micros/Labos_con_Luisja/Laboratorio_Microcontroladores/Laboratorio_4/src/libopencm3-examples/libopencm3/lib/libopencm3_stm32f4.a(rcc.o)
rcc_osc_on                                        /home/juan/Documents/VIII_Semestre/Labo_Micros/Labos_con_Luisja/Laboratorio_Microcontroladores/Laboratorio_4/src/libopencm3-examples/libopencm3/lib/libopencm3_stm32f4.a(rcc.o)
rcc_osc_ready_int_clear                           /home/juan/Documents/VIII_Semestre/Labo_Micros/Labos_con_Luisja/Laboratorio_Microcontroladores/Laboratorio_4/src/libopencm3-examples/libopencm3/lib/libopencm3_stm32f4.a(rcc.o)
rcc_osc_ready_int_disable                         /home/juan/Documents/VIII_Semestre/Labo_Micros/Labos_con_Luisja/Laboratorio_Microcontroladores/Laboratorio_4/src/libopencm3-examples/libopencm3/lib/libopencm3_stm32f4.a(rcc.o)
rcc_osc_ready_int_enable                          /home/juan/Documents/VIII_Semestre/Labo_Micros/Labos_con_Luisja/Laboratorio_Microcontroladores/Laboratorio_4/src/libopencm3-examples/libopencm3/lib/libopencm3_stm32f4.a(rcc.o)
rcc_osc_ready_int_flag                            /home/juan/Documents/VIII_Semestre/Labo_Micros/Labos_con_Luisja/Laboratorio_Microcontroladores/Laboratorio_4/src/libopencm3-examples/libopencm3/lib/libopencm3_stm32f4.a(rcc.o)
rcc_periph_clock_disable                          /home/juan/Documents/VIII_Semestre/Labo_Micros/Labos_con_Luisja/Laboratorio_Microcontroladores/Laboratorio_4/src/libopencm3-examples/libopencm3/lib/libopencm3_stm32f4.a(rcc_common_all.o)
rcc_periph_clock_enable                           /home/juan/Documents/VIII_Semestre/Labo_Micros/Labos_con_Luisja/Laboratorio_Microcontroladores/Laboratorio_4/src/libopencm3-examples/libopencm3/lib/libopencm3_stm32f4.a(rcc_common_all.o)
                                                  /home/juan/Documents/VIII_Semestre/Labo_Micros/Labos_con_Luisja/Laboratorio_Microcontroladores/Laboratorio_4/src/libopencm3-examples/libopencm3/lib/libopencm3_stm32f4.a(rcc.o)
                                                  labo4.o
                                                  lcd.o
                                                  sdram.o
rcc_periph_reset_hold                             /home/juan/Documents/VIII_Semestre/Labo_Micros/Labos_con_Luisja/Laboratorio_Microcontroladores/Laboratorio_4/src/libopencm3-examples/libopencm3/lib/libopencm3_stm32f4.a(rcc_common_all.o)
rcc_periph_reset_pulse                            /home/juan/Documents/VIII_Semestre/Labo_Micros/Labos_con_Luisja/Laboratorio_Microcontroladores/Laboratorio_4/src/libopencm3-examples/libopencm3/lib/libopencm3_stm32f4.a(rcc_common_all.o)
                                                  /home/juan/Documents/VIII_Semestre/Labo_Micros/Labos_con_Luisja/Laboratorio_Microcontroladores/Laboratorio_4/src/libopencm3-examples/libopencm3/lib/libopencm3_stm32f4.a(spi_common_all.o)
rcc_periph_reset_release                          /home/juan/Documents/VIII_Semestre/Labo_Micros/Labos_con_Luisja/Laboratorio_Microcontroladores/Laboratorio_4/src/libopencm3-examples/libopencm3/lib/libopencm3_stm32f4.a(rcc_common_all.o)
rcc_peripheral_clear_reset                        /home/juan/Documents/VIII_Semestre/Labo_Micros/Labos_con_Luisja/Laboratorio_Microcontroladores/Laboratorio_4/src/libopencm3-examples/libopencm3/lib/libopencm3_stm32f4.a(rcc_common_all.o)
rcc_peripheral_disable_clock                      /home/juan/Documents/VIII_Semestre/Labo_Micros/Labos_con_Luisja/Laboratorio_Microcontroladores/Laboratorio_4/src/libopencm3-examples/libopencm3/lib/libopencm3_stm32f4.a(rcc_common_all.o)
rcc_peripheral_enable_clock                       /home/juan/Documents/VIII_Semestre/Labo_Micros/Labos_con_Luisja/Laboratorio_Microcontroladores/Laboratorio_4/src/libopencm3-examples/libopencm3/lib/libopencm3_stm32f4.a(rcc_common_all.o)
rcc_peripheral_reset                              /home/juan/Documents/VIII_Semestre/Labo_Micros/Labos_con_Luisja/Laboratorio_Microcontroladores/Laboratorio_4/src/libopencm3-examples/libopencm3/lib/libopencm3_stm32f4.a(rcc_common_all.o)
rcc_plli2s_config                                 /home/juan/Documents/VIII_Semestre/Labo_Micros/Labos_con_Luisja/Laboratorio_Microcontroladores/Laboratorio_4/src/libopencm3-examples/libopencm3/lib/libopencm3_stm32f4.a(rcc.o)
rcc_pllsai_config                                 /home/juan/Documents/VIII_Semestre/Labo_Micros/Labos_con_Luisja/Laboratorio_Microcontroladores/Laboratorio_4/src/libopencm3-examples/libopencm3/lib/libopencm3_stm32f4.a(rcc.o)
rcc_pllsai_postscalers                            /home/juan/Documents/VIII_Semestre/Labo_Micros/Labos_con_Luisja/Laboratorio_Microcontroladores/Laboratorio_4/src/libopencm3-examples/libopencm3/lib/libopencm3_stm32f4.a(rcc.o)
rcc_set_hpre                                      /home/juan/Documents/VIII_Semestre/Labo_Micros/Labos_con_Luisja/Laboratorio_Microcontroladores/Laboratorio_4/src/libopencm3-examples/libopencm3/lib/libopencm3_stm32f4.a(rcc.o)
rcc_set_main_pll_hse                              /home/juan/Documents/VIII_Semestre/Labo_Micros/Labos_con_Luisja/Laboratorio_Microcontroladores/Laboratorio_4/src/libopencm3-examples/libopencm3/lib/libopencm3_stm32f4.a(rcc.o)
rcc_set_main_pll_hsi                              /home/juan/Documents/VIII_Semestre/Labo_Micros/Labos_con_Luisja/Laboratorio_Microcontroladores/Laboratorio_4/src/libopencm3-examples/libopencm3/lib/libopencm3_stm32f4.a(rcc.o)
rcc_set_mco                                       /home/juan/Documents/VIII_Semestre/Labo_Micros/Labos_con_Luisja/Laboratorio_Microcontroladores/Laboratorio_4/src/libopencm3-examples/libopencm3/lib/libopencm3_stm32f4.a(rcc_common_all.o)
rcc_set_pll_source                                /home/juan/Documents/VIII_Semestre/Labo_Micros/Labos_con_Luisja/Laboratorio_Microcontroladores/Laboratorio_4/src/libopencm3-examples/libopencm3/lib/libopencm3_stm32f4.a(rcc.o)
rcc_set_ppre1                                     /home/juan/Documents/VIII_Semestre/Labo_Micros/Labos_con_Luisja/Laboratorio_Microcontroladores/Laboratorio_4/src/libopencm3-examples/libopencm3/lib/libopencm3_stm32f4.a(rcc.o)
rcc_set_ppre2                                     /home/juan/Documents/VIII_Semestre/Labo_Micros/Labos_con_Luisja/Laboratorio_Microcontroladores/Laboratorio_4/src/libopencm3-examples/libopencm3/lib/libopencm3_stm32f4.a(rcc.o)
rcc_set_rtcpre                                    /home/juan/Documents/VIII_Semestre/Labo_Micros/Labos_con_Luisja/Laboratorio_Microcontroladores/Laboratorio_4/src/libopencm3-examples/libopencm3/lib/libopencm3_stm32f4.a(rcc.o)
rcc_set_sysclk_source                             /home/juan/Documents/VIII_Semestre/Labo_Micros/Labos_con_Luisja/Laboratorio_Microcontroladores/Laboratorio_4/src/libopencm3-examples/libopencm3/lib/libopencm3_stm32f4.a(rcc.o)
rcc_system_clock_source                           /home/juan/Documents/VIII_Semestre/Labo_Micros/Labos_con_Luisja/Laboratorio_Microcontroladores/Laboratorio_4/src/libopencm3-examples/libopencm3/lib/libopencm3_stm32f4.a(rcc.o)
rcc_wait_for_osc_ready                            /home/juan/Documents/VIII_Semestre/Labo_Micros/Labos_con_Luisja/Laboratorio_Microcontroladores/Laboratorio_4/src/libopencm3-examples/libopencm3/lib/libopencm3_stm32f4.a(rcc.o)
rcc_wait_for_sysclk_status                        /home/juan/Documents/VIII_Semestre/Labo_Micros/Labos_con_Luisja/Laboratorio_Microcontroladores/Laboratorio_4/src/libopencm3-examples/libopencm3/lib/libopencm3_stm32f4.a(rcc.o)
reset_handler                                     /home/juan/Documents/VIII_Semestre/Labo_Micros/Labos_con_Luisja/Laboratorio_Microcontroladores/Laboratorio_4/src/libopencm3-examples/libopencm3/lib/libopencm3_stm32f4.a(vector.o)
rtc_alarm_isr                                     /home/juan/Documents/VIII_Semestre/Labo_Micros/Labos_con_Luisja/Laboratorio_Microcontroladores/Laboratorio_4/src/libopencm3-examples/libopencm3/lib/libopencm3_stm32f4.a(vector.o)
rtc_wkup_isr                                      /home/juan/Documents/VIII_Semestre/Labo_Micros/Labos_con_Luisja/Laboratorio_Microcontroladores/Laboratorio_4/src/libopencm3-examples/libopencm3/lib/libopencm3_stm32f4.a(vector.o)
sai1_isr                                          /home/juan/Documents/VIII_Semestre/Labo_Micros/Labos_con_Luisja/Laboratorio_Microcontroladores/Laboratorio_4/src/libopencm3-examples/libopencm3/lib/libopencm3_stm32f4.a(vector.o)
sdio_isr                                          /home/juan/Documents/VIII_Semestre/Labo_Micros/Labos_con_Luisja/Laboratorio_Microcontroladores/Laboratorio_4/src/libopencm3-examples/libopencm3/lib/libopencm3_stm32f4.a(vector.o)
sdram_command                                     /home/juan/Documents/VIII_Semestre/Labo_Micros/Labos_con_Luisja/Laboratorio_Microcontroladores/Laboratorio_4/src/libopencm3-examples/libopencm3/lib/libopencm3_stm32f4.a(fmc_common_f47.o)
                                                  sdram.o
sdram_init                                        sdram.o
                                                  labo4.o
sdram_timing                                      /home/juan/Documents/VIII_Semestre/Labo_Micros/Labos_con_Luisja/Laboratorio_Microcontroladores/Laboratorio_4/src/libopencm3-examples/libopencm3/lib/libopencm3_stm32f4.a(fmc_common_f47.o)
                                                  sdram.o
setlocale                                         /usr/lib/gcc/arm-none-eabi/9.2.1/../../../arm-none-eabi/lib/thumb/v7e-m+fp/hard/libc.a(lib_a-locale.o)
signal                                            /usr/lib/gcc/arm-none-eabi/9.2.1/../../../arm-none-eabi/lib/thumb/v7e-m+fp/hard/libc.a(lib_a-signal.o)
spi1_isr                                          /home/juan/Documents/VIII_Semestre/Labo_Micros/Labos_con_Luisja/Laboratorio_Microcontroladores/Laboratorio_4/src/libopencm3-examples/libopencm3/lib/libopencm3_stm32f4.a(vector.o)
spi2_isr                                          /home/juan/Documents/VIII_Semestre/Labo_Micros/Labos_con_Luisja/Laboratorio_Microcontroladores/Laboratorio_4/src/libopencm3-examples/libopencm3/lib/libopencm3_stm32f4.a(vector.o)
spi3_isr                                          /home/juan/Documents/VIII_Semestre/Labo_Micros/Labos_con_Luisja/Laboratorio_Microcontroladores/Laboratorio_4/src/libopencm3-examples/libopencm3/lib/libopencm3_stm32f4.a(vector.o)
spi4_isr                                          /home/juan/Documents/VIII_Semestre/Labo_Micros/Labos_con_Luisja/Laboratorio_Microcontroladores/Laboratorio_4/src/libopencm3-examples/libopencm3/lib/libopencm3_stm32f4.a(vector.o)
spi5_isr                                          /home/juan/Documents/VIII_Semestre/Labo_Micros/Labos_con_Luisja/Laboratorio_Microcontroladores/Laboratorio_4/src/libopencm3-examples/libopencm3/lib/libopencm3_stm32f4.a(vector.o)
spi6_isr                                          /home/juan/Documents/VIII_Semestre/Labo_Micros/Labos_con_Luisja/Laboratorio_Microcontroladores/Laboratorio_4/src/libopencm3-examples/libopencm3/lib/libopencm3_stm32f4.a(vector.o)
spi_clean_disable                                 /home/juan/Documents/VIII_Semestre/Labo_Micros/Labos_con_Luisja/Laboratorio_Microcontroladores/Laboratorio_4/src/libopencm3-examples/libopencm3/lib/libopencm3_stm32f4.a(spi_common_all.o)
spi_disable                                       /home/juan/Documents/VIII_Semestre/Labo_Micros/Labos_con_Luisja/Laboratorio_Microcontroladores/Laboratorio_4/src/libopencm3-examples/libopencm3/lib/libopencm3_stm32f4.a(spi_common_all.o)
spi_disable_crc                                   /home/juan/Documents/VIII_Semestre/Labo_Micros/Labos_con_Luisja/Laboratorio_Microcontroladores/Laboratorio_4/src/libopencm3-examples/libopencm3/lib/libopencm3_stm32f4.a(spi_common_all.o)
spi_disable_error_interrupt                       /home/juan/Documents/VIII_Semestre/Labo_Micros/Labos_con_Luisja/Laboratorio_Microcontroladores/Laboratorio_4/src/libopencm3-examples/libopencm3/lib/libopencm3_stm32f4.a(spi_common_all.o)
spi_disable_rx_buffer_not_empty_interrupt         /home/juan/Documents/VIII_Semestre/Labo_Micros/Labos_con_Luisja/Laboratorio_Microcontroladores/Laboratorio_4/src/libopencm3-examples/libopencm3/lib/libopencm3_stm32f4.a(spi_common_all.o)
spi_disable_rx_dma                                /home/juan/Documents/VIII_Semestre/Labo_Micros/Labos_con_Luisja/Laboratorio_Microcontroladores/Laboratorio_4/src/libopencm3-examples/libopencm3/lib/libopencm3_stm32f4.a(spi_common_all.o)
spi_disable_software_slave_management             /home/juan/Documents/VIII_Semestre/Labo_Micros/Labos_con_Luisja/Laboratorio_Microcontroladores/Laboratorio_4/src/libopencm3-examples/libopencm3/lib/libopencm3_stm32f4.a(spi_common_all.o)
spi_disable_ss_output                             /home/juan/Documents/VIII_Semestre/Labo_Micros/Labos_con_Luisja/Laboratorio_Microcontroladores/Laboratorio_4/src/libopencm3-examples/libopencm3/lib/libopencm3_stm32f4.a(spi_common_all.o)
spi_disable_tx_buffer_empty_interrupt             /home/juan/Documents/VIII_Semestre/Labo_Micros/Labos_con_Luisja/Laboratorio_Microcontroladores/Laboratorio_4/src/libopencm3-examples/libopencm3/lib/libopencm3_stm32f4.a(spi_common_all.o)
spi_disable_tx_dma                                /home/juan/Documents/VIII_Semestre/Labo_Micros/Labos_con_Luisja/Laboratorio_Microcontroladores/Laboratorio_4/src/libopencm3-examples/libopencm3/lib/libopencm3_stm32f4.a(spi_common_all.o)
spi_enable                                        /home/juan/Documents/VIII_Semestre/Labo_Micros/Labos_con_Luisja/Laboratorio_Microcontroladores/Laboratorio_4/src/libopencm3-examples/libopencm3/lib/libopencm3_stm32f4.a(spi_common_all.o)
                                                  lcd.o
spi_enable_crc                                    /home/juan/Documents/VIII_Semestre/Labo_Micros/Labos_con_Luisja/Laboratorio_Microcontroladores/Laboratorio_4/src/libopencm3-examples/libopencm3/lib/libopencm3_stm32f4.a(spi_common_all.o)
spi_enable_error_interrupt                        /home/juan/Documents/VIII_Semestre/Labo_Micros/Labos_con_Luisja/Laboratorio_Microcontroladores/Laboratorio_4/src/libopencm3-examples/libopencm3/lib/libopencm3_stm32f4.a(spi_common_all.o)
spi_enable_rx_buffer_not_empty_interrupt          /home/juan/Documents/VIII_Semestre/Labo_Micros/Labos_con_Luisja/Laboratorio_Microcontroladores/Laboratorio_4/src/libopencm3-examples/libopencm3/lib/libopencm3_stm32f4.a(spi_common_all.o)
spi_enable_rx_dma                                 /home/juan/Documents/VIII_Semestre/Labo_Micros/Labos_con_Luisja/Laboratorio_Microcontroladores/Laboratorio_4/src/libopencm3-examples/libopencm3/lib/libopencm3_stm32f4.a(spi_common_all.o)
spi_enable_software_slave_management              /home/juan/Documents/VIII_Semestre/Labo_Micros/Labos_con_Luisja/Laboratorio_Microcontroladores/Laboratorio_4/src/libopencm3-examples/libopencm3/lib/libopencm3_stm32f4.a(spi_common_all.o)
spi_enable_ss_output                              /home/juan/Documents/VIII_Semestre/Labo_Micros/Labos_con_Luisja/Laboratorio_Microcontroladores/Laboratorio_4/src/libopencm3-examples/libopencm3/lib/libopencm3_stm32f4.a(spi_common_all.o)
                                                  lcd.o
spi_enable_tx_buffer_empty_interrupt              /home/juan/Documents/VIII_Semestre/Labo_Micros/Labos_con_Luisja/Laboratorio_Microcontroladores/Laboratorio_4/src/libopencm3-examples/libopencm3/lib/libopencm3_stm32f4.a(spi_common_all.o)
spi_enable_tx_dma                                 /home/juan/Documents/VIII_Semestre/Labo_Micros/Labos_con_Luisja/Laboratorio_Microcontroladores/Laboratorio_4/src/libopencm3-examples/libopencm3/lib/libopencm3_stm32f4.a(spi_common_all.o)
spi_init_master                                   /home/juan/Documents/VIII_Semestre/Labo_Micros/Labos_con_Luisja/Laboratorio_Microcontroladores/Laboratorio_4/src/libopencm3-examples/libopencm3/lib/libopencm3_stm32f4.a(spi_common_v1.o)
                                                  lcd.o
spi_read                                          /home/juan/Documents/VIII_Semestre/Labo_Micros/Labos_con_Luisja/Laboratorio_Microcontroladores/Laboratorio_4/src/libopencm3-examples/libopencm3/lib/libopencm3_stm32f4.a(spi_common_all.o)
spi_reset                                         /home/juan/Documents/VIII_Semestre/Labo_Micros/Labos_con_Luisja/Laboratorio_Microcontroladores/Laboratorio_4/src/libopencm3-examples/libopencm3/lib/libopencm3_stm32f4.a(spi_common_all.o)
spi_send                                          /home/juan/Documents/VIII_Semestre/Labo_Micros/Labos_con_Luisja/Laboratorio_Microcontroladores/Laboratorio_4/src/libopencm3-examples/libopencm3/lib/libopencm3_stm32f4.a(spi_common_all.o)
spi_send_lsb_first                                /home/juan/Documents/VIII_Semestre/Labo_Micros/Labos_con_Luisja/Laboratorio_Microcontroladores/Laboratorio_4/src/libopencm3-examples/libopencm3/lib/libopencm3_stm32f4.a(spi_common_all.o)
spi_send_msb_first                                /home/juan/Documents/VIII_Semestre/Labo_Micros/Labos_con_Luisja/Laboratorio_Microcontroladores/Laboratorio_4/src/libopencm3-examples/libopencm3/lib/libopencm3_stm32f4.a(spi_common_all.o)
spi_set_baudrate_prescaler                        /home/juan/Documents/VIII_Semestre/Labo_Micros/Labos_con_Luisja/Laboratorio_Microcontroladores/Laboratorio_4/src/libopencm3-examples/libopencm3/lib/libopencm3_stm32f4.a(spi_common_all.o)
spi_set_bidirectional_mode                        /home/juan/Documents/VIII_Semestre/Labo_Micros/Labos_con_Luisja/Laboratorio_Microcontroladores/Laboratorio_4/src/libopencm3-examples/libopencm3/lib/libopencm3_stm32f4.a(spi_common_all.o)
spi_set_bidirectional_receive_only_mode           /home/juan/Documents/VIII_Semestre/Labo_Micros/Labos_con_Luisja/Laboratorio_Microcontroladores/Laboratorio_4/src/libopencm3-examples/libopencm3/lib/libopencm3_stm32f4.a(spi_common_all.o)
spi_set_bidirectional_transmit_only_mode          /home/juan/Documents/VIII_Semestre/Labo_Micros/Labos_con_Luisja/Laboratorio_Microcontroladores/Laboratorio_4/src/libopencm3-examples/libopencm3/lib/libopencm3_stm32f4.a(spi_common_all.o)
spi_set_clock_phase_0                             /home/juan/Documents/VIII_Semestre/Labo_Micros/Labos_con_Luisja/Laboratorio_Microcontroladores/Laboratorio_4/src/libopencm3-examples/libopencm3/lib/libopencm3_stm32f4.a(spi_common_all.o)
spi_set_clock_phase_1                             /home/juan/Documents/VIII_Semestre/Labo_Micros/Labos_con_Luisja/Laboratorio_Microcontroladores/Laboratorio_4/src/libopencm3-examples/libopencm3/lib/libopencm3_stm32f4.a(spi_common_all.o)
spi_set_clock_polarity_0                          /home/juan/Documents/VIII_Semestre/Labo_Micros/Labos_con_Luisja/Laboratorio_Microcontroladores/Laboratorio_4/src/libopencm3-examples/libopencm3/lib/libopencm3_stm32f4.a(spi_common_all.o)
spi_set_clock_polarity_1                          /home/juan/Documents/VIII_Semestre/Labo_Micros/Labos_con_Luisja/Laboratorio_Microcontroladores/Laboratorio_4/src/libopencm3-examples/libopencm3/lib/libopencm3_stm32f4.a(spi_common_all.o)
spi_set_dff_16bit                                 /home/juan/Documents/VIII_Semestre/Labo_Micros/Labos_con_Luisja/Laboratorio_Microcontroladores/Laboratorio_4/src/libopencm3-examples/libopencm3/lib/libopencm3_stm32f4.a(spi_common_v1.o)
spi_set_dff_8bit                                  /home/juan/Documents/VIII_Semestre/Labo_Micros/Labos_con_Luisja/Laboratorio_Microcontroladores/Laboratorio_4/src/libopencm3-examples/libopencm3/lib/libopencm3_stm32f4.a(spi_common_v1.o)
spi_set_full_duplex_mode                          /home/juan/Documents/VIII_Semestre/Labo_Micros/Labos_con_Luisja/Laboratorio_Microcontroladores/Laboratorio_4/src/libopencm3-examples/libopencm3/lib/libopencm3_stm32f4.a(spi_common_all.o)
spi_set_master_mode                               /home/juan/Documents/VIII_Semestre/Labo_Micros/Labos_con_Luisja/Laboratorio_Microcontroladores/Laboratorio_4/src/libopencm3-examples/libopencm3/lib/libopencm3_stm32f4.a(spi_common_all.o)
spi_set_next_tx_from_buffer                       /home/juan/Documents/VIII_Semestre/Labo_Micros/Labos_con_Luisja/Laboratorio_Microcontroladores/Laboratorio_4/src/libopencm3-examples/libopencm3/lib/libopencm3_stm32f4.a(spi_common_all.o)
spi_set_next_tx_from_crc                          /home/juan/Documents/VIII_Semestre/Labo_Micros/Labos_con_Luisja/Laboratorio_Microcontroladores/Laboratorio_4/src/libopencm3-examples/libopencm3/lib/libopencm3_stm32f4.a(spi_common_all.o)
spi_set_nss_high                                  /home/juan/Documents/VIII_Semestre/Labo_Micros/Labos_con_Luisja/Laboratorio_Microcontroladores/Laboratorio_4/src/libopencm3-examples/libopencm3/lib/libopencm3_stm32f4.a(spi_common_all.o)
spi_set_nss_low                                   /home/juan/Documents/VIII_Semestre/Labo_Micros/Labos_con_Luisja/Laboratorio_Microcontroladores/Laboratorio_4/src/libopencm3-examples/libopencm3/lib/libopencm3_stm32f4.a(spi_common_all.o)
spi_set_receive_only_mode                         /home/juan/Documents/VIII_Semestre/Labo_Micros/Labos_con_Luisja/Laboratorio_Microcontroladores/Laboratorio_4/src/libopencm3-examples/libopencm3/lib/libopencm3_stm32f4.a(spi_common_all.o)
spi_set_slave_mode                                /home/juan/Documents/VIII_Semestre/Labo_Micros/Labos_con_Luisja/Laboratorio_Microcontroladores/Laboratorio_4/src/libopencm3-examples/libopencm3/lib/libopencm3_stm32f4.a(spi_common_all.o)
spi_set_standard_mode                             /home/juan/Documents/VIII_Semestre/Labo_Micros/Labos_con_Luisja/Laboratorio_Microcontroladores/Laboratorio_4/src/libopencm3-examples/libopencm3/lib/libopencm3_stm32f4.a(spi_common_all.o)
spi_set_unidirectional_mode                       /home/juan/Documents/VIII_Semestre/Labo_Micros/Labos_con_Luisja/Laboratorio_Microcontroladores/Laboratorio_4/src/libopencm3-examples/libopencm3/lib/libopencm3_stm32f4.a(spi_common_all.o)
spi_write                                         /home/juan/Documents/VIII_Semestre/Labo_Micros/Labos_con_Luisja/Laboratorio_Microcontroladores/Laboratorio_4/src/libopencm3-examples/libopencm3/lib/libopencm3_stm32f4.a(spi_common_all.o)
spi_xfer                                          /home/juan/Documents/VIII_Semestre/Labo_Micros/Labos_con_Luisja/Laboratorio_Microcontroladores/Laboratorio_4/src/libopencm3-examples/libopencm3/lib/libopencm3_stm32f4.a(spi_common_all.o)
                                                  lcd.o
strcmp                                            /usr/lib/gcc/arm-none-eabi/9.2.1/../../../arm-none-eabi/lib/thumb/v7e-m+fp/hard/libc.a(lib_a-strcmp.o)
                                                  /usr/lib/gcc/arm-none-eabi/9.2.1/../../../arm-none-eabi/lib/thumb/v7e-m+fp/hard/libc.a(lib_a-locale.o)
strlen                                            /usr/lib/gcc/arm-none-eabi/9.2.1/../../../arm-none-eabi/lib/thumb/v7e-m+fp/hard/libc.a(lib_a-strlen.o)
                                                  /usr/lib/gcc/arm-none-eabi/9.2.1/../../../arm-none-eabi/lib/thumb/v7e-m+fp/hard/libc.a(lib_a-vfiprintf.o)
                                                  /usr/lib/gcc/arm-none-eabi/9.2.1/../../../arm-none-eabi/lib/thumb/v7e-m+fp/hard/libc.a(lib_a-vfprintf.o)
                                                  /usr/lib/gcc/arm-none-eabi/9.2.1/../../../arm-none-eabi/lib/thumb/v7e-m+fp/hard/libc.a(lib_a-puts.o)
sv_call_handler                                   /home/juan/Documents/VIII_Semestre/Labo_Micros/Labos_con_Luisja/Laboratorio_Microcontroladores/Laboratorio_4/src/libopencm3-examples/libopencm3/lib/libopencm3_stm32f4.a(vector.o)
sys_tick_handler                                  clock.o
systick_clear                                     /home/juan/Documents/VIII_Semestre/Labo_Micros/Labos_con_Luisja/Laboratorio_Microcontroladores/Laboratorio_4/src/libopencm3-examples/libopencm3/lib/libopencm3_stm32f4.a(systick.o)
systick_counter_disable                           /home/juan/Documents/VIII_Semestre/Labo_Micros/Labos_con_Luisja/Laboratorio_Microcontroladores/Laboratorio_4/src/libopencm3-examples/libopencm3/lib/libopencm3_stm32f4.a(systick.o)
systick_counter_enable                            /home/juan/Documents/VIII_Semestre/Labo_Micros/Labos_con_Luisja/Laboratorio_Microcontroladores/Laboratorio_4/src/libopencm3-examples/libopencm3/lib/libopencm3_stm32f4.a(systick.o)
                                                  clock.o
systick_get_calib                                 /home/juan/Documents/VIII_Semestre/Labo_Micros/Labos_con_Luisja/Laboratorio_Microcontroladores/Laboratorio_4/src/libopencm3-examples/libopencm3/lib/libopencm3_stm32f4.a(systick.o)
systick_get_countflag                             /home/juan/Documents/VIII_Semestre/Labo_Micros/Labos_con_Luisja/Laboratorio_Microcontroladores/Laboratorio_4/src/libopencm3-examples/libopencm3/lib/libopencm3_stm32f4.a(systick.o)
systick_get_reload                                /home/juan/Documents/VIII_Semestre/Labo_Micros/Labos_con_Luisja/Laboratorio_Microcontroladores/Laboratorio_4/src/libopencm3-examples/libopencm3/lib/libopencm3_stm32f4.a(systick.o)
systick_get_value                                 /home/juan/Documents/VIII_Semestre/Labo_Micros/Labos_con_Luisja/Laboratorio_Microcontroladores/Laboratorio_4/src/libopencm3-examples/libopencm3/lib/libopencm3_stm32f4.a(systick.o)
systick_interrupt_disable                         /home/juan/Documents/VIII_Semestre/Labo_Micros/Labos_con_Luisja/Laboratorio_Microcontroladores/Laboratorio_4/src/libopencm3-examples/libopencm3/lib/libopencm3_stm32f4.a(systick.o)
systick_interrupt_enable                          /home/juan/Documents/VIII_Semestre/Labo_Micros/Labos_con_Luisja/Laboratorio_Microcontroladores/Laboratorio_4/src/libopencm3-examples/libopencm3/lib/libopencm3_stm32f4.a(systick.o)
                                                  clock.o
systick_set_clocksource                           /home/juan/Documents/VIII_Semestre/Labo_Micros/Labos_con_Luisja/Laboratorio_Microcontroladores/Laboratorio_4/src/libopencm3-examples/libopencm3/lib/libopencm3_stm32f4.a(systick.o)
                                                  clock.o
systick_set_frequency                             /home/juan/Documents/VIII_Semestre/Labo_Micros/Labos_con_Luisja/Laboratorio_Microcontroladores/Laboratorio_4/src/libopencm3-examples/libopencm3/lib/libopencm3_stm32f4.a(systick.o)
systick_set_reload                                /home/juan/Documents/VIII_Semestre/Labo_Micros/Labos_con_Luisja/Laboratorio_Microcontroladores/Laboratorio_4/src/libopencm3-examples/libopencm3/lib/libopencm3_stm32f4.a(systick.o)
                                                  clock.o
tamp_stamp_isr                                    /home/juan/Documents/VIII_Semestre/Labo_Micros/Labos_con_Luisja/Laboratorio_Microcontroladores/Laboratorio_4/src/libopencm3-examples/libopencm3/lib/libopencm3_stm32f4.a(vector.o)
tim1_brk_tim9_isr                                 /home/juan/Documents/VIII_Semestre/Labo_Micros/Labos_con_Luisja/Laboratorio_Microcontroladores/Laboratorio_4/src/libopencm3-examples/libopencm3/lib/libopencm3_stm32f4.a(vector.o)
tim1_cc_isr                                       /home/juan/Documents/VIII_Semestre/Labo_Micros/Labos_con_Luisja/Laboratorio_Microcontroladores/Laboratorio_4/src/libopencm3-examples/libopencm3/lib/libopencm3_stm32f4.a(vector.o)
tim1_trg_com_tim11_isr                            /home/juan/Documents/VIII_Semestre/Labo_Micros/Labos_con_Luisja/Laboratorio_Microcontroladores/Laboratorio_4/src/libopencm3-examples/libopencm3/lib/libopencm3_stm32f4.a(vector.o)
tim1_up_tim10_isr                                 /home/juan/Documents/VIII_Semestre/Labo_Micros/Labos_con_Luisja/Laboratorio_Microcontroladores/Laboratorio_4/src/libopencm3-examples/libopencm3/lib/libopencm3_stm32f4.a(vector.o)
tim2_isr                                          /home/juan/Documents/VIII_Semestre/Labo_Micros/Labos_con_Luisja/Laboratorio_Microcontroladores/Laboratorio_4/src/libopencm3-examples/libopencm3/lib/libopencm3_stm32f4.a(vector.o)
tim3_isr                                          /home/juan/Documents/VIII_Semestre/Labo_Micros/Labos_con_Luisja/Laboratorio_Microcontroladores/Laboratorio_4/src/libopencm3-examples/libopencm3/lib/libopencm3_stm32f4.a(vector.o)
tim4_isr                                          /home/juan/Documents/VIII_Semestre/Labo_Micros/Labos_con_Luisja/Laboratorio_Microcontroladores/Laboratorio_4/src/libopencm3-examples/libopencm3/lib/libopencm3_stm32f4.a(vector.o)
tim5_isr                                          /home/juan/Documents/VIII_Semestre/Labo_Micros/Labos_con_Luisja/Laboratorio_Microcontroladores/Laboratorio_4/src/libopencm3-examples/libopencm3/lib/libopencm3_stm32f4.a(vector.o)
tim6_dac_isr                                      /home/juan/Documents/VIII_Semestre/Labo_Micros/Labos_con_Luisja/Laboratorio_Microcontroladores/Laboratorio_4/src/libopencm3-examples/libopencm3/lib/libopencm3_stm32f4.a(vector.o)
tim7_isr                                          /home/juan/Documents/VIII_Semestre/Labo_Micros/Labos_con_Luisja/Laboratorio_Microcontroladores/Laboratorio_4/src/libopencm3-examples/libopencm3/lib/libopencm3_stm32f4.a(vector.o)
tim8_brk_tim12_isr                                /home/juan/Documents/VIII_Semestre/Labo_Micros/Labos_con_Luisja/Laboratorio_Microcontroladores/Laboratorio_4/src/libopencm3-examples/libopencm3/lib/libopencm3_stm32f4.a(vector.o)
tim8_cc_isr                                       /home/juan/Documents/VIII_Semestre/Labo_Micros/Labos_con_Luisja/Laboratorio_Microcontroladores/Laboratorio_4/src/libopencm3-examples/libopencm3/lib/libopencm3_stm32f4.a(vector.o)
tim8_trg_com_tim14_isr                            /home/juan/Documents/VIII_Semestre/Labo_Micros/Labos_con_Luisja/Laboratorio_Microcontroladores/Laboratorio_4/src/libopencm3-examples/libopencm3/lib/libopencm3_stm32f4.a(vector.o)
tim8_up_tim13_isr                                 /home/juan/Documents/VIII_Semestre/Labo_Micros/Labos_con_Luisja/Laboratorio_Microcontroladores/Laboratorio_4/src/libopencm3-examples/libopencm3/lib/libopencm3_stm32f4.a(vector.o)
uart4_isr                                         /home/juan/Documents/VIII_Semestre/Labo_Micros/Labos_con_Luisja/Laboratorio_Microcontroladores/Laboratorio_4/src/libopencm3-examples/libopencm3/lib/libopencm3_stm32f4.a(vector.o)
uart5_isr                                         /home/juan/Documents/VIII_Semestre/Labo_Micros/Labos_con_Luisja/Laboratorio_Microcontroladores/Laboratorio_4/src/libopencm3-examples/libopencm3/lib/libopencm3_stm32f4.a(vector.o)
uart7_isr                                         /home/juan/Documents/VIII_Semestre/Labo_Micros/Labos_con_Luisja/Laboratorio_Microcontroladores/Laboratorio_4/src/libopencm3-examples/libopencm3/lib/libopencm3_stm32f4.a(vector.o)
uart8_isr                                         /home/juan/Documents/VIII_Semestre/Labo_Micros/Labos_con_Luisja/Laboratorio_Microcontroladores/Laboratorio_4/src/libopencm3-examples/libopencm3/lib/libopencm3_stm32f4.a(vector.o)
uart_putc                                         labo4.o
usage_fault_handler                               /home/juan/Documents/VIII_Semestre/Labo_Micros/Labos_con_Luisja/Laboratorio_Microcontroladores/Laboratorio_4/src/libopencm3-examples/libopencm3/lib/libopencm3_stm32f4.a(vector.o)
usart1_isr                                        /home/juan/Documents/VIII_Semestre/Labo_Micros/Labos_con_Luisja/Laboratorio_Microcontroladores/Laboratorio_4/src/libopencm3-examples/libopencm3/lib/libopencm3_stm32f4.a(vector.o)
usart2_isr                                        /home/juan/Documents/VIII_Semestre/Labo_Micros/Labos_con_Luisja/Laboratorio_Microcontroladores/Laboratorio_4/src/libopencm3-examples/libopencm3/lib/libopencm3_stm32f4.a(vector.o)
usart3_isr                                        /home/juan/Documents/VIII_Semestre/Labo_Micros/Labos_con_Luisja/Laboratorio_Microcontroladores/Laboratorio_4/src/libopencm3-examples/libopencm3/lib/libopencm3_stm32f4.a(vector.o)
usart6_isr                                        /home/juan/Documents/VIII_Semestre/Labo_Micros/Labos_con_Luisja/Laboratorio_Microcontroladores/Laboratorio_4/src/libopencm3-examples/libopencm3/lib/libopencm3_stm32f4.a(vector.o)
usart_disable                                     /home/juan/Documents/VIII_Semestre/Labo_Micros/Labos_con_Luisja/Laboratorio_Microcontroladores/Laboratorio_4/src/libopencm3-examples/libopencm3/lib/libopencm3_stm32f4.a(usart_common_all.o)
usart_disable_error_interrupt                     /home/juan/Documents/VIII_Semestre/Labo_Micros/Labos_con_Luisja/Laboratorio_Microcontroladores/Laboratorio_4/src/libopencm3-examples/libopencm3/lib/libopencm3_stm32f4.a(usart_common_all.o)
usart_disable_idle_interrupt                      /home/juan/Documents/VIII_Semestre/Labo_Micros/Labos_con_Luisja/Laboratorio_Microcontroladores/Laboratorio_4/src/libopencm3-examples/libopencm3/lib/libopencm3_stm32f4.a(usart_common_all.o)
usart_disable_rx_dma                              /home/juan/Documents/VIII_Semestre/Labo_Micros/Labos_con_Luisja/Laboratorio_Microcontroladores/Laboratorio_4/src/libopencm3-examples/libopencm3/lib/libopencm3_stm32f4.a(usart_common_all.o)
usart_disable_rx_interrupt                        /home/juan/Documents/VIII_Semestre/Labo_Micros/Labos_con_Luisja/Laboratorio_Microcontroladores/Laboratorio_4/src/libopencm3-examples/libopencm3/lib/libopencm3_stm32f4.a(usart_common_all.o)
usart_disable_tx_complete_interrupt               /home/juan/Documents/VIII_Semestre/Labo_Micros/Labos_con_Luisja/Laboratorio_Microcontroladores/Laboratorio_4/src/libopencm3-examples/libopencm3/lib/libopencm3_stm32f4.a(usart_common_all.o)
usart_disable_tx_dma                              /home/juan/Documents/VIII_Semestre/Labo_Micros/Labos_con_Luisja/Laboratorio_Microcontroladores/Laboratorio_4/src/libopencm3-examples/libopencm3/lib/libopencm3_stm32f4.a(usart_common_all.o)
usart_disable_tx_interrupt                        /home/juan/Documents/VIII_Semestre/Labo_Micros/Labos_con_Luisja/Laboratorio_Microcontroladores/Laboratorio_4/src/libopencm3-examples/libopencm3/lib/libopencm3_stm32f4.a(usart_common_all.o)
usart_enable                                      /home/juan/Documents/VIII_Semestre/Labo_Micros/Labos_con_Luisja/Laboratorio_Microcontroladores/Laboratorio_4/src/libopencm3-examples/libopencm3/lib/libopencm3_stm32f4.a(usart_common_all.o)
                                                  labo4.o
usart_enable_error_interrupt                      /home/juan/Documents/VIII_Semestre/Labo_Micros/Labos_con_Luisja/Laboratorio_Microcontroladores/Laboratorio_4/src/libopencm3-examples/libopencm3/lib/libopencm3_stm32f4.a(usart_common_all.o)
usart_enable_idle_interrupt                       /home/juan/Documents/VIII_Semestre/Labo_Micros/Labos_con_Luisja/Laboratorio_Microcontroladores/Laboratorio_4/src/libopencm3-examples/libopencm3/lib/libopencm3_stm32f4.a(usart_common_all.o)
usart_enable_rx_dma                               /home/juan/Documents/VIII_Semestre/Labo_Micros/Labos_con_Luisja/Laboratorio_Microcontroladores/Laboratorio_4/src/libopencm3-examples/libopencm3/lib/libopencm3_stm32f4.a(usart_common_all.o)
usart_enable_rx_interrupt                         /home/juan/Documents/VIII_Semestre/Labo_Micros/Labos_con_Luisja/Laboratorio_Microcontroladores/Laboratorio_4/src/libopencm3-examples/libopencm3/lib/libopencm3_stm32f4.a(usart_common_all.o)
usart_enable_tx_complete_interrupt                /home/juan/Documents/VIII_Semestre/Labo_Micros/Labos_con_Luisja/Laboratorio_Microcontroladores/Laboratorio_4/src/libopencm3-examples/libopencm3/lib/libopencm3_stm32f4.a(usart_common_all.o)
usart_enable_tx_dma                               /home/juan/Documents/VIII_Semestre/Labo_Micros/Labos_con_Luisja/Laboratorio_Microcontroladores/Laboratorio_4/src/libopencm3-examples/libopencm3/lib/libopencm3_stm32f4.a(usart_common_all.o)
usart_enable_tx_interrupt                         /home/juan/Documents/VIII_Semestre/Labo_Micros/Labos_con_Luisja/Laboratorio_Microcontroladores/Laboratorio_4/src/libopencm3-examples/libopencm3/lib/libopencm3_stm32f4.a(usart_common_all.o)
usart_get_flag                                    /home/juan/Documents/VIII_Semestre/Labo_Micros/Labos_con_Luisja/Laboratorio_Microcontroladores/Laboratorio_4/src/libopencm3-examples/libopencm3/lib/libopencm3_stm32f4.a(usart_common_f124.o)
usart_recv                                        /home/juan/Documents/VIII_Semestre/Labo_Micros/Labos_con_Luisja/Laboratorio_Microcontroladores/Laboratorio_4/src/libopencm3-examples/libopencm3/lib/libopencm3_stm32f4.a(usart_common_f124.o)
                                                  /home/juan/Documents/VIII_Semestre/Labo_Micros/Labos_con_Luisja/Laboratorio_Microcontroladores/Laboratorio_4/src/libopencm3-examples/libopencm3/lib/libopencm3_stm32f4.a(usart_common_all.o)
usart_recv_blocking                               /home/juan/Documents/VIII_Semestre/Labo_Micros/Labos_con_Luisja/Laboratorio_Microcontroladores/Laboratorio_4/src/libopencm3-examples/libopencm3/lib/libopencm3_stm32f4.a(usart_common_all.o)
usart_send                                        /home/juan/Documents/VIII_Semestre/Labo_Micros/Labos_con_Luisja/Laboratorio_Microcontroladores/Laboratorio_4/src/libopencm3-examples/libopencm3/lib/libopencm3_stm32f4.a(usart_common_f124.o)
                                                  /home/juan/Documents/VIII_Semestre/Labo_Micros/Labos_con_Luisja/Laboratorio_Microcontroladores/Laboratorio_4/src/libopencm3-examples/libopencm3/lib/libopencm3_stm32f4.a(usart_common_all.o)
usart_send_blocking                               /home/juan/Documents/VIII_Semestre/Labo_Micros/Labos_con_Luisja/Laboratorio_Microcontroladores/Laboratorio_4/src/libopencm3-examples/libopencm3/lib/libopencm3_stm32f4.a(usart_common_all.o)
usart_set_baudrate                                /home/juan/Documents/VIII_Semestre/Labo_Micros/Labos_con_Luisja/Laboratorio_Microcontroladores/Laboratorio_4/src/libopencm3-examples/libopencm3/lib/libopencm3_stm32f4.a(usart_common_all.o)
                                                  labo4.o
usart_set_databits                                /home/juan/Documents/VIII_Semestre/Labo_Micros/Labos_con_Luisja/Laboratorio_Microcontroladores/Laboratorio_4/src/libopencm3-examples/libopencm3/lib/libopencm3_stm32f4.a(usart_common_all.o)
                                                  labo4.o
usart_set_flow_control                            /home/juan/Documents/VIII_Semestre/Labo_Micros/Labos_con_Luisja/Laboratorio_Microcontroladores/Laboratorio_4/src/libopencm3-examples/libopencm3/lib/libopencm3_stm32f4.a(usart_common_all.o)
                                                  labo4.o
usart_set_mode                                    /home/juan/Documents/VIII_Semestre/Labo_Micros/Labos_con_Luisja/Laboratorio_Microcontroladores/Laboratorio_4/src/libopencm3-examples/libopencm3/lib/libopencm3_stm32f4.a(usart_common_all.o)
                                                  labo4.o
usart_set_parity                                  /home/juan/Documents/VIII_Semestre/Labo_Micros/Labos_con_Luisja/Laboratorio_Microcontroladores/Laboratorio_4/src/libopencm3-examples/libopencm3/lib/libopencm3_stm32f4.a(usart_common_all.o)
                                                  labo4.o
usart_set_stopbits                                /home/juan/Documents/VIII_Semestre/Labo_Micros/Labos_con_Luisja/Laboratorio_Microcontroladores/Laboratorio_4/src/libopencm3-examples/libopencm3/lib/libopencm3_stm32f4.a(usart_common_all.o)
                                                  labo4.o
usart_wait_recv_ready                             /home/juan/Documents/VIII_Semestre/Labo_Micros/Labos_con_Luisja/Laboratorio_Microcontroladores/Laboratorio_4/src/libopencm3-examples/libopencm3/lib/libopencm3_stm32f4.a(usart_common_f124.o)
                                                  /home/juan/Documents/VIII_Semestre/Labo_Micros/Labos_con_Luisja/Laboratorio_Microcontroladores/Laboratorio_4/src/libopencm3-examples/libopencm3/lib/libopencm3_stm32f4.a(usart_common_all.o)
usart_wait_send_ready                             /home/juan/Documents/VIII_Semestre/Labo_Micros/Labos_con_Luisja/Laboratorio_Microcontroladores/Laboratorio_4/src/libopencm3-examples/libopencm3/lib/libopencm3_stm32f4.a(usart_common_f124.o)
                                                  /home/juan/Documents/VIII_Semestre/Labo_Micros/Labos_con_Luisja/Laboratorio_Microcontroladores/Laboratorio_4/src/libopencm3-examples/libopencm3/lib/libopencm3_stm32f4.a(usart_common_all.o)
usb_fs_wkup_isr                                   /home/juan/Documents/VIII_Semestre/Labo_Micros/Labos_con_Luisja/Laboratorio_Microcontroladores/Laboratorio_4/src/libopencm3-examples/libopencm3/lib/libopencm3_stm32f4.a(vector.o)
vector_table                                      /home/juan/Documents/VIII_Semestre/Labo_Micros/Labos_con_Luisja/Laboratorio_Microcontroladores/Laboratorio_4/src/libopencm3-examples/libopencm3/lib/libopencm3_stm32f4.a(vector.o)
vfiprintf                                         /usr/lib/gcc/arm-none-eabi/9.2.1/../../../arm-none-eabi/lib/thumb/v7e-m+fp/hard/libc.a(lib_a-vfiprintf.o)
vfprintf                                          /usr/lib/gcc/arm-none-eabi/9.2.1/../../../arm-none-eabi/lib/thumb/v7e-m+fp/hard/libc.a(lib_a-vfprintf.o)
wcrtomb                                           /usr/lib/gcc/arm-none-eabi/9.2.1/../../../arm-none-eabi/lib/thumb/v7e-m+fp/hard/libc.a(lib_a-wcrtomb.o)
